# SymbolsHelper-Confirmed: 4:4.6.5 amd64
libkastengui.so.4 libkastengui4 #MINVER#
* Build-Depends-Package: okteta-dev
 ABI_4_0@ABI_4_0 4:4.6.1
 _ZN6Kasten11ShellWindow10queryCloseEv@ABI_4_0 4:4.6.1
 _ZN6Kasten11ShellWindow11qt_metacallEN11QMetaObject4CallEiPPv@ABI_4_0 4:4.6.1
 _ZN6Kasten11ShellWindow11qt_metacastEPKc@ABI_4_0 4:4.6.1
 _ZN6Kasten11ShellWindow13onDataDroppedEPK9QMimeData@ABI_4_0 4:4.6.1
 _ZN6Kasten11ShellWindow13onDataOfferedEPK9QMimeDataRb@ABI_4_0 4:4.6.1
 _ZN6Kasten11ShellWindow14onCloseRequestERK5QListIPNS_12AbstractViewEE@ABI_4_0 4:4.6.1
 _ZN6Kasten11ShellWindow14onTitleChangedERK7QString@ABI_4_0 4:4.6.1
 _ZN6Kasten11ShellWindow16onFocusRequestedEPNS_16AbstractDocumentE@ABI_4_0 4:4.6.1
 _ZN6Kasten11ShellWindow16staticMetaObjectE@ABI_4_0 4:4.6.1
 _ZN6Kasten11ShellWindow17updateControllersEPNS_12AbstractViewE@ABI_4_0 4:4.6.1
 _ZN6Kasten11ShellWindow18onViewFocusChangedEPNS_12AbstractViewE@ABI_4_0 4:4.6.1
 _ZN6Kasten11ShellWindow19addXmlGuiControllerEPNS_24AbstractXmlGuiControllerE@ABI_4_0 4:4.6.1
 _ZN6Kasten11ShellWindow23onLocalSyncStateChangedENS_14LocalSyncStateE@ABI_4_0 4:4.6.1
 _ZN6Kasten11ShellWindow23onToolVisibilityChangedEb@ABI_4_0 4:4.6.1
 _ZN6Kasten11ShellWindow7addToolEPNS_16AbstractToolViewE@ABI_4_0 4:4.6.1
 _ZN6Kasten11ShellWindowC1EPNS_15DocumentManagerEPNS_11ViewManagerE@ABI_4_0 4:4.6.1
 _ZN6Kasten11ShellWindowC2EPNS_15DocumentManagerEPNS_11ViewManagerE@ABI_4_0 4:4.6.1
 _ZN6Kasten11ShellWindowD0Ev@ABI_4_0 4:4.6.1
 _ZN6Kasten11ShellWindowD1Ev@ABI_4_0 4:4.6.1
 _ZN6Kasten11ShellWindowD2Ev@ABI_4_0 4:4.6.1
 _ZN6Kasten11TabbedViews11dataDroppedEPK9QMimeData@ABI_4_0 4:4.6.1
 _ZN6Kasten11TabbedViews11dataOfferedEPK9QMimeDataRb@ABI_4_0 4:4.6.1
 _ZN6Kasten11TabbedViews11qt_metacallEN11QMetaObject4CallEiPPv@ABI_4_0 4:4.6.1
 _ZN6Kasten11TabbedViews11qt_metacastEPKc@ABI_4_0 4:4.6.1
 _ZN6Kasten11TabbedViews11removeViewsERK5QListIPNS_12AbstractViewEE@ABI_4_0 4:4.6.1
 _ZN6Kasten11TabbedViews12setViewFocusEPNS_12AbstractViewE@ABI_4_0 4:4.6.1
 _ZN6Kasten11TabbedViews16staticMetaObjectE@ABI_4_0 4:4.6.1
 _ZN6Kasten11TabbedViews24setCurrentToolInlineViewEPNS_22AbstractToolInlineViewE@ABI_4_0 4:4.6.1
 _ZN6Kasten11TabbedViews8addViewsERK5QListIPNS_12AbstractViewEE@ABI_4_0 4:4.6.1
 _ZN6Kasten11TabbedViews8setFocusEv@ABI_4_0 4:4.6.1
 _ZN6Kasten11TabbedViewsC1EPNS_18TabbedViewsPrivateE@ABI_4_0 4:4.6.1
 _ZN6Kasten11TabbedViewsC1Ev@ABI_4_0 4:4.6.1
 _ZN6Kasten11TabbedViewsC2EPNS_18TabbedViewsPrivateE@ABI_4_0 4:4.6.1
 _ZN6Kasten11TabbedViewsC2Ev@ABI_4_0 4:4.6.1
 _ZN6Kasten11TabbedViewsD0Ev@ABI_4_0 4:4.6.1
 _ZN6Kasten11TabbedViewsD1Ev@ABI_4_0 4:4.6.1
 _ZN6Kasten11TabbedViewsD2Ev@ABI_4_0 4:4.6.1
 _ZN6Kasten11ViewManager11qt_metacallEN11QMetaObject4CallEiPPv@ABI_4_0 4:4.6.1
 _ZN6Kasten11ViewManager11qt_metacastEPKc@ABI_4_0 4:4.6.1
 _ZN6Kasten11ViewManager11removeViewsERK5QListIPNS_12AbstractViewEE@ABI_4_0 4:4.6.1
 _ZN6Kasten11ViewManager14createViewsForERK5QListIPNS_16AbstractDocumentEE@ABI_4_0 4:4.6.1
 _ZN6Kasten11ViewManager14removeViewsForERK5QListIPNS_16AbstractDocumentEE@ABI_4_0 4:4.6.1
 _ZN6Kasten11ViewManager14setViewFactoryEPNS_19AbstractViewFactoryE@ABI_4_0 4:4.6.1
 _ZN6Kasten11ViewManager16createCopyOfViewEPNS_12AbstractViewE6QFlagsIN2Qt13AlignmentFlagEE@ABI_4_0 4:4.6.1
 _ZN6Kasten11ViewManager16staticMetaObjectE@ABI_4_0 4:4.6.1
 _ZN6Kasten11ViewManager6openedERK5QListIPNS_12AbstractViewEE@ABI_4_0 4:4.6.1
 _ZN6Kasten11ViewManager7closingERK5QListIPNS_12AbstractViewEE@ABI_4_0 4:4.6.1
 _ZN6Kasten11ViewManagerC1Ev@ABI_4_0 4:4.6.1
 _ZN6Kasten11ViewManagerC2Ev@ABI_4_0 4:4.6.1
 _ZN6Kasten11ViewManagerD0Ev@ABI_4_0 4:4.6.1
 _ZN6Kasten11ViewManagerD1Ev@ABI_4_0 4:4.6.1
 _ZN6Kasten11ViewManagerD2Ev@ABI_4_0 4:4.6.1
 _ZN6Kasten12AbstractView11qt_metacallEN11QMetaObject4CallEiPPv@ABI_4_0 4:4.6.1
 _ZN6Kasten12AbstractView11qt_metacastEPKc@ABI_4_0 4:4.6.1
 _ZN6Kasten12AbstractView12focusChangedEb@ABI_4_0 4:4.6.1
 _ZN6Kasten12AbstractView16staticMetaObjectE@ABI_4_0 4:4.6.1
 _ZN6Kasten12AbstractView21localSyncStateChangedENS_14LocalSyncStateE@ABI_4_0 4:4.6.1
 _ZN6Kasten12AbstractView22remoteSyncStateChangedENS_15RemoteSyncStateE@ABI_4_0 4:4.6.1
 _ZN6Kasten12AbstractViewC1EPNS_13AbstractModelE@ABI_4_0 4:4.6.1
 _ZN6Kasten12AbstractViewC2EPNS_13AbstractModelE@ABI_4_0 4:4.6.1
 _ZN6Kasten12AbstractViewD0Ev@ABI_4_0 4:4.6.1
 _ZN6Kasten12AbstractViewD1Ev@ABI_4_0 4:4.6.1
 _ZN6Kasten12AbstractViewD2Ev@ABI_4_0 4:4.6.1
 _ZN6Kasten12ToggleButton11qt_metacallEN11QMetaObject4CallEiPPv@ABI_4_0 4:4.6.1
 _ZN6Kasten12ToggleButton11qt_metacastEPKc@ABI_4_0 4:4.6.1
 _ZN6Kasten12ToggleButton15setCheckedStateERK5KIconRK7QStringS6_@ABI_4_0 4:4.6.1
 _ZN6Kasten12ToggleButton15setCheckedStateERK7QStringS3_@ABI_4_0 4:4.6.1
 _ZN6Kasten12ToggleButton16staticMetaObjectE@ABI_4_0 4:4.6.1
 _ZN6Kasten12ToggleButtonC1ERK5KIconRK7QStringS6_P7QWidget@ABI_4_0 4:4.6.1
 _ZN6Kasten12ToggleButtonC1ERK7QStringS3_P7QWidget@ABI_4_0 4:4.6.1
 _ZN6Kasten12ToggleButtonC2ERK5KIconRK7QStringS6_P7QWidget@ABI_4_0 4:4.6.1
 _ZN6Kasten12ToggleButtonC2ERK7QStringS3_P7QWidget@ABI_4_0 4:4.6.1
 _ZN6Kasten12ToggleButtonD0Ev@ABI_4_0 4:4.6.1
 _ZN6Kasten12ToggleButtonD1Ev@ABI_4_0 4:4.6.1
 _ZN6Kasten12ToggleButtonD2Ev@ABI_4_0 4:4.6.1
 _ZN6Kasten14MultiViewAreas11dataDroppedEPK9QMimeData@ABI_4_0 4:4.6.1
 _ZN6Kasten14MultiViewAreas11dataOfferedEPK9QMimeDataRb@ABI_4_0 4:4.6.1
 _ZN6Kasten14MultiViewAreas11qt_metacallEN11QMetaObject4CallEiPPv@ABI_4_0 4:4.6.1
 _ZN6Kasten14MultiViewAreas11qt_metacastEPKc@ABI_4_0 4:4.6.1
 _ZN6Kasten14MultiViewAreas11removeViewsERK5QListIPNS_12AbstractViewEE@ABI_4_0 4:4.6.1
 _ZN6Kasten14MultiViewAreas12setViewFocusEPNS_12AbstractViewE@ABI_4_0 4:4.6.1
 _ZN6Kasten14MultiViewAreas13closeViewAreaEPNS_16AbstractViewAreaE@ABI_4_0 4:4.6.1
 _ZN6Kasten14MultiViewAreas13splitViewAreaEPNS_16AbstractViewAreaEN2Qt11OrientationE@ABI_4_0 4:4.6.1
 _ZN6Kasten14MultiViewAreas14viewAreasAddedERK5QListIPNS_16AbstractViewAreaEE@ABI_4_0 4:4.6.1
 _ZN6Kasten14MultiViewAreas16setViewAreaFocusEPNS_16AbstractViewAreaE@ABI_4_0 4:4.6.1
 _ZN6Kasten14MultiViewAreas16staticMetaObjectE@ABI_4_0 4:4.6.1
 _ZN6Kasten14MultiViewAreas16viewAreasRemovedERK5QListIPNS_16AbstractViewAreaEE@ABI_4_0 4:4.6.1
 _ZN6Kasten14MultiViewAreas20viewAreaFocusChangedEPNS_16AbstractViewAreaE@ABI_4_0 4:4.6.1
 _ZN6Kasten14MultiViewAreas24setCurrentToolInlineViewEPNS_22AbstractToolInlineViewE@ABI_4_0 4:4.6.1
 _ZN6Kasten14MultiViewAreas8addViewsERK5QListIPNS_12AbstractViewEE@ABI_4_0 4:4.6.1
 _ZN6Kasten14MultiViewAreas8setFocusEv@ABI_4_0 4:4.6.1
 _ZN6Kasten14MultiViewAreasC1Ev@ABI_4_0 4:4.6.1
 _ZN6Kasten14MultiViewAreasC2Ev@ABI_4_0 4:4.6.1
 _ZN6Kasten14MultiViewAreasD0Ev@ABI_4_0 4:4.6.1
 _ZN6Kasten14MultiViewAreasD1Ev@ABI_4_0 4:4.6.1
 _ZN6Kasten14MultiViewAreasD2Ev@ABI_4_0 4:4.6.1
 _ZN6Kasten16AbstractToolView7PrivateC1EPS0_@ABI_4_0 4:4.6.1
 _ZN6Kasten16AbstractToolView7PrivateC2EPS0_@ABI_4_0 4:4.6.1
 _ZN6Kasten16AbstractToolViewC1Ev@ABI_4_0 4:4.6.1
 _ZN6Kasten16AbstractToolViewC2Ev@ABI_4_0 4:4.6.1
 _ZN6Kasten16AbstractToolViewD0Ev@ABI_4_0 4:4.6.1
 _ZN6Kasten16AbstractToolViewD1Ev@ABI_4_0 4:4.6.1
 _ZN6Kasten16AbstractToolViewD2Ev@ABI_4_0 4:4.6.1
 _ZN6Kasten16AbstractViewArea11qt_metacallEN11QMetaObject4CallEiPPv@ABI_4_0 4:4.6.1
 _ZN6Kasten16AbstractViewArea11qt_metacastEPKc@ABI_4_0 4:4.6.1
 _ZN6Kasten16AbstractViewArea12focusChangedEb@ABI_4_0 4:4.6.1
 _ZN6Kasten16AbstractViewArea16staticMetaObjectE@ABI_4_0 4:4.6.1
 _ZN6Kasten16AbstractViewAreaC1EPNS_23AbstractViewAreaPrivateE@ABI_4_0 4:4.6.1
 _ZN6Kasten16AbstractViewAreaC1Ev@ABI_4_0 4:4.6.1
 _ZN6Kasten16AbstractViewAreaC2EPNS_23AbstractViewAreaPrivateE@ABI_4_0 4:4.6.1
 _ZN6Kasten16AbstractViewAreaC2Ev@ABI_4_0 4:4.6.1
 _ZN6Kasten16AbstractViewAreaD0Ev@ABI_4_0 4:4.6.1
 _ZN6Kasten16AbstractViewAreaD1Ev@ABI_4_0 4:4.6.1
 _ZN6Kasten16AbstractViewAreaD2Ev@ABI_4_0 4:4.6.1
 _ZN6Kasten17AbstractLinePopup10setVisibleEb@ABI_4_0 4:4.6.1
 _ZN6Kasten17AbstractLinePopup11eventFilterEP7QObjectP6QEvent@ABI_4_0 4:4.6.1
 _ZN6Kasten17AbstractLinePopup11qt_metacallEN11QMetaObject4CallEiPPv@ABI_4_0 4:4.6.1
 _ZN6Kasten17AbstractLinePopup11qt_metacastEPKc@ABI_4_0 4:4.6.1
 _ZN6Kasten17AbstractLinePopup11setPositionERK6QPoint@ABI_4_0 4:4.6.1
 _ZN6Kasten17AbstractLinePopup16staticMetaObjectE@ABI_4_0 4:4.6.1
 _ZN6Kasten17AbstractLinePopup4execEv@ABI_4_0 4:4.6.1
 _ZN6Kasten17AbstractLinePopup7setIconERK5KIcon@ABI_4_0 4:4.6.1
 _ZN6Kasten17AbstractLinePopup9setResultEi@ABI_4_0 4:4.6.1
 _ZN6Kasten17AbstractLinePopup9setWidgetEP7QWidget@ABI_4_0 4:4.6.1
 _ZN6Kasten17AbstractLinePopupC1EP7QWidget@ABI_4_0 4:4.6.1
 _ZN6Kasten17AbstractLinePopupC2EP7QWidget@ABI_4_0 4:4.6.1
 _ZN6Kasten17AbstractLinePopupD0Ev@ABI_4_0 4:4.6.1
 _ZN6Kasten17AbstractLinePopupD1Ev@ABI_4_0 4:4.6.1
 _ZN6Kasten17AbstractLinePopupD2Ev@ABI_4_0 4:4.6.1
 _ZN6Kasten18AbstractController11qt_metacallEN11QMetaObject4CallEiPPv@ABI_4_0 4:4.6.1
 _ZN6Kasten18AbstractController11qt_metacastEPKc@ABI_4_0 4:4.6.1
 _ZN6Kasten18AbstractController14setTargetModelEPNS_13AbstractModelE@ABI_4_0 4:4.6.1
 _ZN6Kasten18AbstractController16staticMetaObjectE@ABI_4_0 4:4.6.1
 _ZN6Kasten18AbstractControllerD0Ev@ABI_4_0 4:4.6.5
 _ZN6Kasten18AbstractControllerD1Ev@ABI_4_0 4:4.6.5
 _ZN6Kasten18AbstractControllerD2Ev@ABI_4_0 4:4.6.5
 _ZN6Kasten18AbstractToolWidget11qt_metacallEN11QMetaObject4CallEiPPv@ABI_4_0 4:4.6.1
 _ZN6Kasten18AbstractToolWidget11qt_metacastEPKc@ABI_4_0 4:4.6.1
 _ZN6Kasten18AbstractToolWidget16staticMetaObjectE@ABI_4_0 4:4.6.1
 _ZN6Kasten18AbstractToolWidget9addButtonEP11QPushButtonNS0_11DefaultTypeE@ABI_4_0 4:4.6.1
 _ZN6Kasten18AbstractToolWidgetC1EP7QWidget@ABI_4_0 4:4.6.1
 _ZN6Kasten18AbstractToolWidgetC2EP7QWidget@ABI_4_0 4:4.6.1
 _ZN6Kasten18AbstractToolWidgetD0Ev@ABI_4_0 4:4.6.1
 _ZN6Kasten18AbstractToolWidgetD1Ev@ABI_4_0 4:4.6.1
 _ZN6Kasten18AbstractToolWidgetD2Ev@ABI_4_0 4:4.6.1
 (arch=!armel)_ZN6Kasten19AbstractViewFactory16createCopyOfViewEPNS_12AbstractViewE6QFlagsIN2Qt13AlignmentFlagEE@ABI_4_0 4:4.6.2
 (arch=!armel)_ZN6Kasten19AbstractViewFactoryD0Ev@ABI_4_0 4:4.6.2
 (arch=!armel)_ZN6Kasten19AbstractViewFactoryD1Ev@ABI_4_0 4:4.6.2
 (optional=internal|arch=!armel !hurd-i386 !ia64 !sparc)_ZN6Kasten19AbstractViewFactoryD2Ev@ABI_4_0 4:4.6.2
 _ZN6Kasten20AbstractGroupedViews11qt_metacallEN11QMetaObject4CallEiPPv@ABI_4_0 4:4.6.1
 _ZN6Kasten20AbstractGroupedViews11qt_metacastEPKc@ABI_4_0 4:4.6.1
 _ZN6Kasten20AbstractGroupedViews12closeRequestERK5QListIPNS_12AbstractViewEE@ABI_4_0 4:4.6.1
 _ZN6Kasten20AbstractGroupedViews16staticMetaObjectE@ABI_4_0 4:4.6.1
 _ZN6Kasten20AbstractGroupedViews16viewFocusChangedEPNS_12AbstractViewE@ABI_4_0 4:4.6.1
 _ZN6Kasten20AbstractGroupedViews5addedERK5QListIPNS_12AbstractViewEE@ABI_4_0 4:4.6.1
 _ZN6Kasten20AbstractGroupedViews8removingERK5QListIPNS_12AbstractViewEE@ABI_4_0 4:4.6.1
 _ZN6Kasten20AbstractGroupedViewsC1EPNS_27AbstractGroupedViewsPrivateE@ABI_4_0 4:4.6.1
 _ZN6Kasten20AbstractGroupedViewsC1Ev@ABI_4_0 4:4.6.1
 _ZN6Kasten20AbstractGroupedViewsC2EPNS_27AbstractGroupedViewsPrivateE@ABI_4_0 4:4.6.1
 _ZN6Kasten20AbstractGroupedViewsC2Ev@ABI_4_0 4:4.6.1
 _ZN6Kasten20AbstractGroupedViewsD0Ev@ABI_4_0 4:4.6.1
 _ZN6Kasten20AbstractGroupedViewsD1Ev@ABI_4_0 4:4.6.1
 _ZN6Kasten20AbstractGroupedViewsD2Ev@ABI_4_0 4:4.6.1
 _ZN6Kasten21AbstractSelectionView11qt_metacallEN11QMetaObject4CallEiPPv@ABI_4_0 4:4.6.1
 _ZN6Kasten21AbstractSelectionView11qt_metacastEPKc@ABI_4_0 4:4.6.1
 _ZN6Kasten21AbstractSelectionView16staticMetaObjectE@ABI_4_0 4:4.6.1
 _ZN6Kasten21AbstractSelectionView7PrivateC1EPS0_@ABI_4_0 4:4.6.1
 _ZN6Kasten21AbstractSelectionView7PrivateC2EPS0_@ABI_4_0 4:4.6.1
 _ZN6Kasten21AbstractSelectionViewC1Ev@ABI_4_0 4:4.6.1
 _ZN6Kasten21AbstractSelectionViewC2Ev@ABI_4_0 4:4.6.1
 _ZN6Kasten21AbstractSelectionViewD0Ev@ABI_4_0 4:4.6.1
 _ZN6Kasten21AbstractSelectionViewD1Ev@ABI_4_0 4:4.6.1
 _ZN6Kasten21AbstractSelectionViewD2Ev@ABI_4_0 4:4.6.1
 _ZN6Kasten21ModelCodecViewManager11qt_metacallEN11QMetaObject4CallEiPPv@ABI_4_0 4:4.6.1
 _ZN6Kasten21ModelCodecViewManager11qt_metacastEPKc@ABI_4_0 4:4.6.1
 _ZN6Kasten21ModelCodecViewManager16staticMetaObjectE@ABI_4_0 4:4.6.1
 _ZN6Kasten21ModelCodecViewManager31setEncoderConfigEditorFactoriesERK5QListIPNS_45AbstractModelStreamEncoderConfigEditorFactoryEE@ABI_4_0 4:4.6.1
 _ZN6Kasten21ModelCodecViewManager32setExporterConfigEditorFactoriesERK5QListIPNS_40AbstractModelExporterConfigEditorFactoryEE@ABI_4_0 4:4.6.1
 _ZN6Kasten21ModelCodecViewManager33setGeneratorConfigEditorFactoriesERK5QListIPNS_45AbstractModelDataGeneratorConfigEditorFactoryEE@ABI_4_0 4:4.6.1
 _ZN6Kasten21ModelCodecViewManagerC1Ev@ABI_4_0 4:4.6.1
 _ZN6Kasten21ModelCodecViewManagerC2Ev@ABI_4_0 4:4.6.1
 _ZN6Kasten21ModelCodecViewManagerD0Ev@ABI_4_0 4:4.6.1
 _ZN6Kasten21ModelCodecViewManagerD1Ev@ABI_4_0 4:4.6.1
 _ZN6Kasten21ModelCodecViewManagerD2Ev@ABI_4_0 4:4.6.1
 _ZN6Kasten22AbstractToolInlineView7PrivateC1EPS0_@ABI_4_0 4:4.6.1
 _ZN6Kasten22AbstractToolInlineView7PrivateC2EPS0_@ABI_4_0 4:4.6.1
 _ZN6Kasten22AbstractToolInlineView8activateEv@ABI_4_0 4:4.6.1
 _ZN6Kasten22AbstractToolInlineViewC1Ev@ABI_4_0 4:4.6.1
 _ZN6Kasten22AbstractToolInlineViewC2Ev@ABI_4_0 4:4.6.1
 _ZN6Kasten22AbstractToolInlineViewD0Ev@ABI_4_0 4:4.6.1
 _ZN6Kasten22AbstractToolInlineViewD1Ev@ABI_4_0 4:4.6.1
 _ZN6Kasten22AbstractToolInlineViewD2Ev@ABI_4_0 4:4.6.1
 _ZN6Kasten24AbstractXmlGuiController11qt_metacallEN11QMetaObject4CallEiPPv@ABI_4_0 4:4.6.1
 _ZN6Kasten24AbstractXmlGuiController11qt_metacastEPKc@ABI_4_0 4:4.6.1
 _ZN6Kasten24AbstractXmlGuiController16staticMetaObjectE@ABI_4_0 4:4.6.1
 _ZN6Kasten24AbstractXmlGuiControllerD0Ev@ABI_4_0 4:4.6.5
 _ZN6Kasten24AbstractXmlGuiControllerD1Ev@ABI_4_0 4:4.6.5
 _ZN6Kasten24AbstractXmlGuiControllerD2Ev@ABI_4_0 4:4.6.5
 _ZN6Kasten33AbstractModelExporterConfigEditor11qt_metacallEN11QMetaObject4CallEiPPv@ABI_4_0 4:4.6.1
 _ZN6Kasten33AbstractModelExporterConfigEditor11qt_metacastEPKc@ABI_4_0 4:4.6.1
 _ZN6Kasten33AbstractModelExporterConfigEditor15validityChangedEb@ABI_4_0 4:4.6.1
 _ZN6Kasten33AbstractModelExporterConfigEditor16staticMetaObjectE@ABI_4_0 4:4.6.1
 _ZN6Kasten33AbstractModelExporterConfigEditorC1EP7QWidget@ABI_4_0 4:4.6.1
 _ZN6Kasten33AbstractModelExporterConfigEditorC2EP7QWidget@ABI_4_0 4:4.6.1
 _ZN6Kasten33AbstractModelExporterConfigEditorD0Ev@ABI_4_0 4:4.6.1
 _ZN6Kasten33AbstractModelExporterConfigEditorD1Ev@ABI_4_0 4:4.6.1
 _ZN6Kasten33AbstractModelExporterConfigEditorD2Ev@ABI_4_0 4:4.6.1
 _ZN6Kasten38AbstractModelDataGeneratorConfigEditor11qt_metacallEN11QMetaObject4CallEiPPv@ABI_4_0 4:4.6.1
 _ZN6Kasten38AbstractModelDataGeneratorConfigEditor11qt_metacastEPKc@ABI_4_0 4:4.6.1
 _ZN6Kasten38AbstractModelDataGeneratorConfigEditor15validityChangedEb@ABI_4_0 4:4.6.1
 _ZN6Kasten38AbstractModelDataGeneratorConfigEditor16staticMetaObjectE@ABI_4_0 4:4.6.1
 _ZN6Kasten38AbstractModelDataGeneratorConfigEditorC1EP7QWidget@ABI_4_0 4:4.6.1
 _ZN6Kasten38AbstractModelDataGeneratorConfigEditorC2EP7QWidget@ABI_4_0 4:4.6.1
 _ZN6Kasten38AbstractModelDataGeneratorConfigEditorD0Ev@ABI_4_0 4:4.6.1
 _ZN6Kasten38AbstractModelDataGeneratorConfigEditorD1Ev@ABI_4_0 4:4.6.1
 _ZN6Kasten38AbstractModelDataGeneratorConfigEditorD2Ev@ABI_4_0 4:4.6.1
 _ZN6Kasten38AbstractModelStreamEncoderConfigEditor11qt_metacallEN11QMetaObject4CallEiPPv@ABI_4_0 4:4.6.1
 _ZN6Kasten38AbstractModelStreamEncoderConfigEditor11qt_metacastEPKc@ABI_4_0 4:4.6.1
 _ZN6Kasten38AbstractModelStreamEncoderConfigEditor15validityChangedEb@ABI_4_0 4:4.6.1
 _ZN6Kasten38AbstractModelStreamEncoderConfigEditor16staticMetaObjectE@ABI_4_0 4:4.6.1
 _ZN6Kasten38AbstractModelStreamEncoderConfigEditorC1EP7QWidget@ABI_4_0 4:4.6.1
 _ZN6Kasten38AbstractModelStreamEncoderConfigEditorC2EP7QWidget@ABI_4_0 4:4.6.1
 _ZN6Kasten38AbstractModelStreamEncoderConfigEditorD0Ev@ABI_4_0 4:4.6.1
 _ZN6Kasten38AbstractModelStreamEncoderConfigEditorD1Ev@ABI_4_0 4:4.6.1
 _ZN6Kasten38AbstractModelStreamEncoderConfigEditorD2Ev@ABI_4_0 4:4.6.1
 _ZN6Kasten40AbstractModelExporterConfigEditorFactoryD0Ev@ABI_4_0 4:4.6.1
 _ZN6Kasten40AbstractModelExporterConfigEditorFactoryD1Ev@ABI_4_0 4:4.6.1
 (optional=gcc4.4|arch=!hurd-i386 !ia64 !sparc)_ZN6Kasten40AbstractModelExporterConfigEditorFactoryD2Ev@ABI_4_0 4:4.6.3
 _ZN6Kasten42ModelEncoderFileSystemExporterConfigEditor11qt_metacallEN11QMetaObject4CallEiPPv@ABI_4_0 4:4.6.1
 _ZN6Kasten42ModelEncoderFileSystemExporterConfigEditor11qt_metacastEPKc@ABI_4_0 4:4.6.1
 _ZN6Kasten42ModelEncoderFileSystemExporterConfigEditor16staticMetaObjectE@ABI_4_0 4:4.6.1
 _ZN6Kasten42ModelEncoderFileSystemExporterConfigEditorC1EPNS_38AbstractModelStreamEncoderConfigEditorE@ABI_4_0 4:4.6.1
 _ZN6Kasten42ModelEncoderFileSystemExporterConfigEditorC2EPNS_38AbstractModelStreamEncoderConfigEditorE@ABI_4_0 4:4.6.1
 _ZN6Kasten42ModelEncoderFileSystemExporterConfigEditorD0Ev@ABI_4_0 4:4.6.1
 _ZN6Kasten42ModelEncoderFileSystemExporterConfigEditorD1Ev@ABI_4_0 4:4.6.1
 _ZN6Kasten42ModelEncoderFileSystemExporterConfigEditorD2Ev@ABI_4_0 4:4.6.1
 (arch=!armel)_ZN6Kasten45AbstractModelDataGeneratorConfigEditorFactoryD0Ev@ABI_4_0 4:4.6.2
 (arch=!armel)_ZN6Kasten45AbstractModelDataGeneratorConfigEditorFactoryD1Ev@ABI_4_0 4:4.6.2
 (optional=internal|arch=!armel !hurd-i386 !ia64 !sparc)_ZN6Kasten45AbstractModelDataGeneratorConfigEditorFactoryD2Ev@ABI_4_0 4:4.6.2
 (arch=!armel)_ZN6Kasten45AbstractModelStreamEncoderConfigEditorFactoryD0Ev@ABI_4_0 4:4.6.2
 (arch=!armel)_ZN6Kasten45AbstractModelStreamEncoderConfigEditorFactoryD1Ev@ABI_4_0 4:4.6.2
 (optional=gcc4.4|arch=!armel !hurd-i386 !ia64 !sparc)_ZN6Kasten45AbstractModelStreamEncoderConfigEditorFactoryD2Ev@ABI_4_0 4:4.6.2
 _ZN6Kasten49ModelEncoderFileSystemExporterConfigEditorFactoryC1EPNS_45AbstractModelStreamEncoderConfigEditorFactoryE@ABI_4_0 4:4.6.1
 _ZN6Kasten49ModelEncoderFileSystemExporterConfigEditorFactoryC2EPNS_45AbstractModelStreamEncoderConfigEditorFactoryE@ABI_4_0 4:4.6.1
 _ZN6Kasten49ModelEncoderFileSystemExporterConfigEditorFactoryD0Ev@ABI_4_0 4:4.6.1
 _ZN6Kasten49ModelEncoderFileSystemExporterConfigEditorFactoryD1Ev@ABI_4_0 4:4.6.1
 _ZN6Kasten49ModelEncoderFileSystemExporterConfigEditorFactoryD2Ev@ABI_4_0 4:4.6.1
 _ZN6Kasten9DummyView11qt_metacallEN11QMetaObject4CallEiPPv@ABI_4_0 4:4.6.1
 _ZN6Kasten9DummyView11qt_metacastEPKc@ABI_4_0 4:4.6.1
 _ZN6Kasten9DummyView13onTitleChangeERK7QString@ABI_4_0 4:4.6.1
 _ZN6Kasten9DummyView16staticMetaObjectE@ABI_4_0 4:4.6.1
 _ZN6Kasten9DummyView8setFocusEv@ABI_4_0 4:4.6.1
 _ZN6Kasten9DummyViewC1EPNS_16AbstractDocumentE@ABI_4_0 4:4.6.1
 _ZN6Kasten9DummyViewC2EPNS_16AbstractDocumentE@ABI_4_0 4:4.6.1
 _ZN6Kasten9DummyViewD0Ev@ABI_4_0 4:4.6.1
 _ZN6Kasten9DummyViewD1Ev@ABI_4_0 4:4.6.1
 _ZN6Kasten9DummyViewD2Ev@ABI_4_0 4:4.6.1
 _ZN6Kasten9StatusBar11changeEventEP6QEvent@ABI_4_0 4:4.6.1
 _ZN6Kasten9StatusBar11qt_metacallEN11QMetaObject4CallEiPPv@ABI_4_0 4:4.6.1
 _ZN6Kasten9StatusBar11qt_metacastEPKc@ABI_4_0 4:4.6.1
 _ZN6Kasten9StatusBar16staticMetaObjectE@ABI_4_0 4:4.6.1
 _ZN6Kasten9StatusBar9addWidgetEP7QWidget@ABI_4_0 4:4.6.1
 _ZN6Kasten9StatusBarC1EP7QWidget@ABI_4_0 4:4.6.1
 _ZN6Kasten9StatusBarC2EP7QWidget@ABI_4_0 4:4.6.1
 _ZN6Kasten9StatusBarD0Ev@ABI_4_0 4:4.6.1
 _ZN6Kasten9StatusBarD1Ev@ABI_4_0 4:4.6.1
 _ZN6Kasten9StatusBarD2Ev@ABI_4_0 4:4.6.1
 _ZNK6Kasten11ShellWindow10metaObjectEv@ABI_4_0 4:4.6.1
 _ZNK6Kasten11ShellWindow11dockWidgetsEv@ABI_4_0 4:4.6.1
 _ZNK6Kasten11TabbedViews10metaObjectEv@ABI_4_0 4:4.6.1
 _ZNK6Kasten11TabbedViews6widgetEv@ABI_4_0 4:4.6.1
 _ZNK6Kasten11TabbedViews7indexOfEPNS_12AbstractViewE@ABI_4_0 4:4.6.1
 _ZNK6Kasten11TabbedViews8hasFocusEv@ABI_4_0 4:4.6.1
 _ZNK6Kasten11TabbedViews8viewListEv@ABI_4_0 4:4.6.1
 _ZNK6Kasten11TabbedViews9viewCountEv@ABI_4_0 4:4.6.1
 _ZNK6Kasten11TabbedViews9viewFocusEv@ABI_4_0 4:4.6.1
 _ZNK6Kasten11ViewManager10metaObjectEv@ABI_4_0 4:4.6.1
 _ZNK6Kasten11ViewManager12viewByWidgetEP7QWidget@ABI_4_0 4:4.6.1
 _ZNK6Kasten11ViewManager5viewsEv@ABI_4_0 4:4.6.1
 _ZNK6Kasten12AbstractView10metaObjectEv@ABI_4_0 4:4.6.1
 _ZNK6Kasten12ToggleButton10metaObjectEv@ABI_4_0 4:4.6.1
 (optional=templinst)_ZNK6Kasten13AbstractModel13findBaseModelIPNS_16AbstractDocumentEEET_v@ABI_4_0 4:4.6.1
 _ZNK6Kasten14MultiViewAreas10metaObjectEv@ABI_4_0 4:4.6.1
 _ZNK6Kasten14MultiViewAreas13viewAreaFocusEv@ABI_4_0 4:4.6.1
 _ZNK6Kasten14MultiViewAreas14viewAreasCountEv@ABI_4_0 4:4.6.1
 _ZNK6Kasten14MultiViewAreas6widgetEv@ABI_4_0 4:4.6.1
 _ZNK6Kasten14MultiViewAreas7indexOfEPNS_12AbstractViewE@ABI_4_0 4:4.6.1
 _ZNK6Kasten14MultiViewAreas8hasFocusEv@ABI_4_0 4:4.6.1
 _ZNK6Kasten14MultiViewAreas8viewListEv@ABI_4_0 4:4.6.1
 _ZNK6Kasten14MultiViewAreas9viewCountEv@ABI_4_0 4:4.6.1
 _ZNK6Kasten14MultiViewAreas9viewFocusEv@ABI_4_0 4:4.6.1
 _ZNK6Kasten16AbstractViewArea10metaObjectEv@ABI_4_0 4:4.6.1
 _ZNK6Kasten17AbstractLinePopup10metaObjectEv@ABI_4_0 4:4.6.1
 _ZNK6Kasten18AbstractController10metaObjectEv@ABI_4_0 4:4.6.1
 _ZNK6Kasten18AbstractToolWidget10metaObjectEv@ABI_4_0 4:4.6.1
 _ZNK6Kasten20AbstractGroupedViews10metaObjectEv@ABI_4_0 4:4.6.1
 _ZNK6Kasten21AbstractSelectionView10metaObjectEv@ABI_4_0 4:4.6.1
 _ZNK6Kasten21ModelCodecViewManager10metaObjectEv@ABI_4_0 4:4.6.1
 _ZNK6Kasten21ModelCodecViewManager18createConfigEditorEPNS_21AbstractModelExporterE@ABI_4_0 4:4.6.1
 _ZNK6Kasten21ModelCodecViewManager18createConfigEditorEPNS_26AbstractModelDataGeneratorE@ABI_4_0 4:4.6.1
 _ZNK6Kasten21ModelCodecViewManager18createConfigEditorEPNS_26AbstractModelStreamEncoderE@ABI_4_0 4:4.6.1
 _ZNK6Kasten24AbstractXmlGuiController10metaObjectEv@ABI_4_0 4:4.6.1
 _ZNK6Kasten33AbstractModelExporterConfigEditor10metaObjectEv@ABI_4_0 4:4.6.1
 _ZNK6Kasten33AbstractModelExporterConfigEditor17createPreviewViewEv@ABI_4_0 4:4.6.1
 _ZNK6Kasten33AbstractModelExporterConfigEditor7isValidEv@ABI_4_0 4:4.6.1
 _ZNK6Kasten38AbstractModelDataGeneratorConfigEditor10metaObjectEv@ABI_4_0 4:4.6.1
 _ZNK6Kasten38AbstractModelDataGeneratorConfigEditor7isValidEv@ABI_4_0 4:4.6.1
 _ZNK6Kasten38AbstractModelStreamEncoderConfigEditor10metaObjectEv@ABI_4_0 4:4.6.1
 _ZNK6Kasten38AbstractModelStreamEncoderConfigEditor17createPreviewViewEv@ABI_4_0 4:4.6.1
 _ZNK6Kasten38AbstractModelStreamEncoderConfigEditor7isValidEv@ABI_4_0 4:4.6.1
 _ZNK6Kasten42ModelEncoderFileSystemExporterConfigEditor10metaObjectEv@ABI_4_0 4:4.6.1
 _ZNK6Kasten42ModelEncoderFileSystemExporterConfigEditor17createPreviewViewEv@ABI_4_0 4:4.6.1
 _ZNK6Kasten42ModelEncoderFileSystemExporterConfigEditor7isValidEv@ABI_4_0 4:4.6.1
 _ZNK6Kasten49ModelEncoderFileSystemExporterConfigEditorFactory21tryCreateConfigEditorEPNS_21AbstractModelExporterE@ABI_4_0 4:4.6.1
 _ZNK6Kasten9DummyView10metaObjectEv@ABI_4_0 4:4.6.1
 _ZNK6Kasten9DummyView5titleEv@ABI_4_0 4:4.6.1
 _ZNK6Kasten9DummyView6widgetEv@ABI_4_0 4:4.6.1
 _ZNK6Kasten9DummyView8hasFocusEv@ABI_4_0 4:4.6.1
 _ZNK6Kasten9StatusBar10metaObjectEv@ABI_4_0 4:4.6.1
 _ZTIN6Kasten11ShellWindowE@ABI_4_0 4:4.6.1
 _ZTIN6Kasten11TabbedViewsE@ABI_4_0 4:4.6.1
 _ZTIN6Kasten11ViewManagerE@ABI_4_0 4:4.6.1
 _ZTIN6Kasten12AbstractViewE@ABI_4_0 4:4.6.1
 _ZTIN6Kasten12ToggleButtonE@ABI_4_0 4:4.6.1
 _ZTIN6Kasten14MultiViewAreasE@ABI_4_0 4:4.6.1
 _ZTIN6Kasten16AbstractToolViewE@ABI_4_0 4:4.6.1
 _ZTIN6Kasten16AbstractViewAreaE@ABI_4_0 4:4.6.1
 _ZTIN6Kasten17AbstractLinePopupE@ABI_4_0 4:4.6.1
 _ZTIN6Kasten18AbstractControllerE@ABI_4_0 4:4.6.1
 _ZTIN6Kasten18AbstractToolWidgetE@ABI_4_0 4:4.6.1
 (arch=!armel)_ZTIN6Kasten19AbstractViewFactoryE@ABI_4_0 4:4.6.2
 _ZTIN6Kasten20AbstractGroupedViewsE@ABI_4_0 4:4.6.1
 _ZTIN6Kasten21AbstractSelectionViewE@ABI_4_0 4:4.6.1
 _ZTIN6Kasten21ModelCodecViewManagerE@ABI_4_0 4:4.6.1
 _ZTIN6Kasten22AbstractToolInlineViewE@ABI_4_0 4:4.6.1
 _ZTIN6Kasten24AbstractXmlGuiControllerE@ABI_4_0 4:4.6.1
 _ZTIN6Kasten33AbstractModelExporterConfigEditorE@ABI_4_0 4:4.6.1
 _ZTIN6Kasten38AbstractModelDataGeneratorConfigEditorE@ABI_4_0 4:4.6.1
 _ZTIN6Kasten38AbstractModelStreamEncoderConfigEditorE@ABI_4_0 4:4.6.1
 _ZTIN6Kasten40AbstractModelExporterConfigEditorFactoryE@ABI_4_0 4:4.6.1
 _ZTIN6Kasten42ModelEncoderFileSystemExporterConfigEditorE@ABI_4_0 4:4.6.1
 (arch=!armel)_ZTIN6Kasten45AbstractModelDataGeneratorConfigEditorFactoryE@ABI_4_0 4:4.6.2
 (arch=!armel)_ZTIN6Kasten45AbstractModelStreamEncoderConfigEditorFactoryE@ABI_4_0 4:4.6.2
 _ZTIN6Kasten49ModelEncoderFileSystemExporterConfigEditorFactoryE@ABI_4_0 4:4.6.1
 _ZTIN6Kasten9DummyViewE@ABI_4_0 4:4.6.1
 _ZTIN6Kasten9StatusBarE@ABI_4_0 4:4.6.1
 _ZTSN6Kasten11ShellWindowE@ABI_4_0 4:4.6.1
 _ZTSN6Kasten11TabbedViewsE@ABI_4_0 4:4.6.1
 _ZTSN6Kasten11ViewManagerE@ABI_4_0 4:4.6.1
 _ZTSN6Kasten12AbstractViewE@ABI_4_0 4:4.6.1
 _ZTSN6Kasten12ToggleButtonE@ABI_4_0 4:4.6.1
 _ZTSN6Kasten14MultiViewAreasE@ABI_4_0 4:4.6.1
 _ZTSN6Kasten16AbstractToolViewE@ABI_4_0 4:4.6.1
 _ZTSN6Kasten16AbstractViewAreaE@ABI_4_0 4:4.6.1
 _ZTSN6Kasten17AbstractLinePopupE@ABI_4_0 4:4.6.1
 _ZTSN6Kasten18AbstractControllerE@ABI_4_0 4:4.6.1
 _ZTSN6Kasten18AbstractToolWidgetE@ABI_4_0 4:4.6.1
 (arch=!armel)_ZTSN6Kasten19AbstractViewFactoryE@ABI_4_0 4:4.6.2
 _ZTSN6Kasten20AbstractGroupedViewsE@ABI_4_0 4:4.6.1
 _ZTSN6Kasten21AbstractSelectionViewE@ABI_4_0 4:4.6.1
 _ZTSN6Kasten21ModelCodecViewManagerE@ABI_4_0 4:4.6.1
 _ZTSN6Kasten22AbstractToolInlineViewE@ABI_4_0 4:4.6.1
 _ZTSN6Kasten24AbstractXmlGuiControllerE@ABI_4_0 4:4.6.1
 _ZTSN6Kasten33AbstractModelExporterConfigEditorE@ABI_4_0 4:4.6.1
 _ZTSN6Kasten38AbstractModelDataGeneratorConfigEditorE@ABI_4_0 4:4.6.1
 _ZTSN6Kasten38AbstractModelStreamEncoderConfigEditorE@ABI_4_0 4:4.6.1
 _ZTSN6Kasten40AbstractModelExporterConfigEditorFactoryE@ABI_4_0 4:4.6.1
 _ZTSN6Kasten42ModelEncoderFileSystemExporterConfigEditorE@ABI_4_0 4:4.6.1
 (arch=!armel)_ZTSN6Kasten45AbstractModelDataGeneratorConfigEditorFactoryE@ABI_4_0 4:4.6.2
 (arch=!armel)_ZTSN6Kasten45AbstractModelStreamEncoderConfigEditorFactoryE@ABI_4_0 4:4.6.2
 _ZTSN6Kasten49ModelEncoderFileSystemExporterConfigEditorFactoryE@ABI_4_0 4:4.6.1
 _ZTSN6Kasten9DummyViewE@ABI_4_0 4:4.6.1
 _ZTSN6Kasten9StatusBarE@ABI_4_0 4:4.6.1
 _ZTTN6Kasten11ShellWindowE@ABI_4_0 4:4.6.1
 _ZTVN6Kasten11ShellWindowE@ABI_4_0 4:4.6.1
 _ZTVN6Kasten11TabbedViewsE@ABI_4_0 4:4.6.1
 _ZTVN6Kasten11ViewManagerE@ABI_4_0 4:4.6.1
 _ZTVN6Kasten12AbstractViewE@ABI_4_0 4:4.6.1
 _ZTVN6Kasten12ToggleButtonE@ABI_4_0 4:4.6.1
 _ZTVN6Kasten14MultiViewAreasE@ABI_4_0 4:4.6.1
 _ZTVN6Kasten16AbstractToolViewE@ABI_4_0 4:4.6.1
 _ZTVN6Kasten16AbstractViewAreaE@ABI_4_0 4:4.6.1
 _ZTVN6Kasten17AbstractLinePopupE@ABI_4_0 4:4.6.1
 _ZTVN6Kasten18AbstractControllerE@ABI_4_0 4:4.6.1
 _ZTVN6Kasten18AbstractToolWidgetE@ABI_4_0 4:4.6.1
 (arch=!armel)_ZTVN6Kasten19AbstractViewFactoryE@ABI_4_0 4:4.6.2
 _ZTVN6Kasten20AbstractGroupedViewsE@ABI_4_0 4:4.6.1
 _ZTVN6Kasten21AbstractSelectionViewE@ABI_4_0 4:4.6.1
 _ZTVN6Kasten21ModelCodecViewManagerE@ABI_4_0 4:4.6.1
 _ZTVN6Kasten22AbstractToolInlineViewE@ABI_4_0 4:4.6.1
 _ZTVN6Kasten24AbstractXmlGuiControllerE@ABI_4_0 4:4.6.1
 _ZTVN6Kasten33AbstractModelExporterConfigEditorE@ABI_4_0 4:4.6.1
 _ZTVN6Kasten38AbstractModelDataGeneratorConfigEditorE@ABI_4_0 4:4.6.1
 _ZTVN6Kasten38AbstractModelStreamEncoderConfigEditorE@ABI_4_0 4:4.6.1
 _ZTVN6Kasten40AbstractModelExporterConfigEditorFactoryE@ABI_4_0 4:4.6.1
 _ZTVN6Kasten42ModelEncoderFileSystemExporterConfigEditorE@ABI_4_0 4:4.6.1
 (arch=!armel)_ZTVN6Kasten45AbstractModelDataGeneratorConfigEditorFactoryE@ABI_4_0 4:4.6.2
 (arch=!armel)_ZTVN6Kasten45AbstractModelStreamEncoderConfigEditorFactoryE@ABI_4_0 4:4.6.2
 _ZTVN6Kasten49ModelEncoderFileSystemExporterConfigEditorFactoryE@ABI_4_0 4:4.6.1
 _ZTVN6Kasten9DummyViewE@ABI_4_0 4:4.6.1
 _ZTVN6Kasten9StatusBarE@ABI_4_0 4:4.6.1
 (c++)"construction vtable for KXmlGuiWindow-in-Kasten::ShellWindow@ABI_4_0" 4:4.6.1
 (c++)"non-virtual thunk to Kasten::AbstractLinePopup::~AbstractLinePopup()@ABI_4_0" 4:4.6.1
 (c++)"non-virtual thunk to Kasten::AbstractModelDataGeneratorConfigEditor::~AbstractModelDataGeneratorConfigEditor()@ABI_4_0" 4:4.6.1
 (c++)"non-virtual thunk to Kasten::AbstractModelExporterConfigEditor::~AbstractModelExporterConfigEditor()@ABI_4_0" 4:4.6.1
 (c++)"non-virtual thunk to Kasten::AbstractModelStreamEncoderConfigEditor::~AbstractModelStreamEncoderConfigEditor()@ABI_4_0" 4:4.6.1
 (c++)"non-virtual thunk to Kasten::AbstractToolWidget::~AbstractToolWidget()@ABI_4_0" 4:4.6.1
 (c++)"non-virtual thunk to Kasten::ModelEncoderFileSystemExporterConfigEditor::~ModelEncoderFileSystemExporterConfigEditor()@ABI_4_0" 4:4.6.1
 (c++)"non-virtual thunk to Kasten::MultiViewAreas::closeViewArea(Kasten::AbstractViewArea*)@ABI_4_0" 4:4.6.1
 (c++)"non-virtual thunk to Kasten::MultiViewAreas::setCurrentToolInlineView(Kasten::AbstractToolInlineView*)@ABI_4_0" 4:4.6.1
 (c++)"non-virtual thunk to Kasten::MultiViewAreas::setViewAreaFocus(Kasten::AbstractViewArea*)@ABI_4_0" 4:4.6.1
 (c++)"non-virtual thunk to Kasten::MultiViewAreas::splitViewArea(Kasten::AbstractViewArea*, Qt::Orientation)@ABI_4_0" 4:4.6.1
 (c++)"non-virtual thunk to Kasten::MultiViewAreas::viewAreaFocus() const@ABI_4_0" 4:4.6.1
 (c++)"non-virtual thunk to Kasten::MultiViewAreas::viewAreaFocusChanged(Kasten::AbstractViewArea*)@ABI_4_0" 4:4.6.1
 (c++)"non-virtual thunk to Kasten::MultiViewAreas::viewAreasAdded(QList<Kasten::AbstractViewArea*> const&)@ABI_4_0" 4:4.6.1
 (c++)"non-virtual thunk to Kasten::MultiViewAreas::viewAreasCount() const@ABI_4_0" 4:4.6.1
 (c++)"non-virtual thunk to Kasten::MultiViewAreas::viewAreasRemoved(QList<Kasten::AbstractViewArea*> const&)@ABI_4_0" 4:4.6.1
 (c++)"non-virtual thunk to Kasten::MultiViewAreas::~MultiViewAreas()@ABI_4_0" 4:4.6.1
 (c++)"non-virtual thunk to Kasten::ShellWindow::dockWidgets() const@ABI_4_0" 4:4.6.1
 (c++)"non-virtual thunk to Kasten::ShellWindow::~ShellWindow()@ABI_4_0" 4:4.6.1
 (c++)"non-virtual thunk to Kasten::StatusBar::~StatusBar()@ABI_4_0" 4:4.6.1
 (c++)"non-virtual thunk to Kasten::TabbedViews::setCurrentToolInlineView(Kasten::AbstractToolInlineView*)@ABI_4_0" 4:4.6.1
 (c++)"non-virtual thunk to Kasten::TabbedViews::~TabbedViews()@ABI_4_0" 4:4.6.1
 (c++)"non-virtual thunk to Kasten::ToggleButton::~ToggleButton()@ABI_4_0" 4:4.6.1
 (c++)"virtual thunk to Kasten::ShellWindow::~ShellWindow()@ABI_4_0" 4:4.6.1
