# SymbolsHelper-Confirmed: 4:4.7.4 amd64 armel armhf hurd-i386 i386 ia64 kfreebsd-amd64 kfreebsd-i386 mips mipsel powerpc s390 s390x sparc
libkastencore.so.4 libkastencore4 #MINVER#
* Build-Depends-Package: okteta-dev
 ABI_4_0@ABI_4_0 4:4.6.1
 (arch=kfreebsd-amd64 kfreebsd-i386)_ZN4KUrl4ListD1Ev@ABI_4_0 4:4.7.4
 (arch=kfreebsd-amd64 kfreebsd-i386)_ZN4KUrl4ListD2Ev@ABI_4_0 4:4.7.4
 _ZN6Kasten10JobManager10executeJobEP4KJobP7QWidget@ABI_4_0 4:4.6.1
 _ZN6Kasten12AbstractTool11qt_metacallEN11QMetaObject4CallEiPPv@ABI_4_0 4:4.6.1
 _ZN6Kasten12AbstractTool11qt_metacastEPKc@ABI_4_0 4:4.6.1
 _ZN6Kasten12AbstractTool12titleChangedERK7QString@ABI_4_0 4:4.6.1
 _ZN6Kasten12AbstractTool16staticMetaObjectE@ABI_4_0 4:4.6.1
 _ZN6Kasten12AbstractTool7PrivateC1EPS0_@ABI_4_0 4:4.6.1
 _ZN6Kasten12AbstractTool7PrivateC2EPS0_@ABI_4_0 4:4.6.1
 _ZN6Kasten12AbstractToolC1Ev@ABI_4_0 4:4.6.1
 _ZN6Kasten12AbstractToolC2Ev@ABI_4_0 4:4.6.1
 _ZN6Kasten12AbstractToolD0Ev@ABI_4_0 4:4.6.1
 _ZN6Kasten12AbstractToolD1Ev@ABI_4_0 4:4.6.1
 _ZN6Kasten12AbstractToolD2Ev@ABI_4_0 4:4.6.1
 _ZN6Kasten13AbstractModel11qt_metacallEN11QMetaObject4CallEiPPv@ABI_4_0 4:4.6.1
 _ZN6Kasten13AbstractModel11qt_metacastEPKc@ABI_4_0 4:4.6.1
 _ZN6Kasten13AbstractModel11setReadOnlyEb@ABI_4_0 4:4.6.1
 _ZN6Kasten13AbstractModel12setBaseModelEPS0_@ABI_4_0 4:4.6.1
 _ZN6Kasten13AbstractModel12titleChangedERK7QString@ABI_4_0 4:4.6.1
 _ZN6Kasten13AbstractModel15readOnlyChangedEb@ABI_4_0 4:4.6.1
 _ZN6Kasten13AbstractModel16staticMetaObjectE@ABI_4_0 4:4.6.1
 _ZN6Kasten13AbstractModel17modifiableChangedEb@ABI_4_0 4:4.6.1
 _ZN6Kasten13AbstractModelC1EPNS_20AbstractModelPrivateE@ABI_4_0 4:4.6.1
 _ZN6Kasten13AbstractModelC1EPS0_@ABI_4_0 4:4.6.1
 _ZN6Kasten13AbstractModelC2EPNS_20AbstractModelPrivateE@ABI_4_0 4:4.6.1
 _ZN6Kasten13AbstractModelC2EPS0_@ABI_4_0 4:4.6.1
 _ZN6Kasten13AbstractModelD0Ev@ABI_4_0 4:4.6.1
 _ZN6Kasten13AbstractModelD1Ev@ABI_4_0 4:4.6.1
 _ZN6Kasten13AbstractModelD2Ev@ABI_4_0 4:4.6.1
 _ZN6Kasten15AbstractLoadJob11qt_metacallEN11QMetaObject4CallEiPPv@ABI_4_0 4:4.6.1
 _ZN6Kasten15AbstractLoadJob11qt_metacastEPKc@ABI_4_0 4:4.6.1
 _ZN6Kasten15AbstractLoadJob11setDocumentEPNS_16AbstractDocumentE@ABI_4_0 4:4.6.1
 _ZN6Kasten15AbstractLoadJob14documentLoadedEPNS_16AbstractDocumentE@ABI_4_0 4:4.6.1
 _ZN6Kasten15AbstractLoadJob16staticMetaObjectE@ABI_4_0 4:4.6.1
 _ZN6Kasten15AbstractLoadJobC1EPNS_22AbstractLoadJobPrivateE@ABI_4_0 4:4.6.1
 _ZN6Kasten15AbstractLoadJobC1Ev@ABI_4_0 4:4.6.1
 _ZN6Kasten15AbstractLoadJobC2EPNS_22AbstractLoadJobPrivateE@ABI_4_0 4:4.6.1
 _ZN6Kasten15AbstractLoadJobC2Ev@ABI_4_0 4:4.6.1
 _ZN6Kasten15AbstractLoadJobD0Ev@ABI_4_0 4:4.6.1
 _ZN6Kasten15AbstractLoadJobD1Ev@ABI_4_0 4:4.6.1
 _ZN6Kasten15AbstractLoadJobD2Ev@ABI_4_0 4:4.6.1
 _ZN6Kasten15DocumentManager11addDocumentEPNS_16AbstractDocumentE@ABI_4_0 4:4.6.1
 _ZN6Kasten15DocumentManager11canCloseAllEv@ABI_4_0 4:4.6.1
 _ZN6Kasten15DocumentManager11qt_metacallEN11QMetaObject4CallEiPPv@ABI_4_0 4:4.6.1
 _ZN6Kasten15DocumentManager11qt_metacastEPKc@ABI_4_0 4:4.6.1
 _ZN6Kasten15DocumentManager12requestFocusEPNS_16AbstractDocumentE@ABI_4_0 4:4.6.1
 _ZN6Kasten15DocumentManager13closeAllOtherEPNS_16AbstractDocumentE@ABI_4_0 4:4.6.1
 _ZN6Kasten15DocumentManager13closeDocumentEPNS_16AbstractDocumentE@ABI_4_0 4:4.6.1
 _ZN6Kasten15DocumentManager14closeDocumentsERK5QListIPNS_16AbstractDocumentEE@ABI_4_0 4:4.6.1
 _ZN6Kasten15DocumentManager14focusRequestedEPNS_16AbstractDocumentE@ABI_4_0 4:4.6.1
 _ZN6Kasten15DocumentManager16canCloseAllOtherEPNS_16AbstractDocumentE@ABI_4_0 4:4.6.1
 _ZN6Kasten15DocumentManager16staticMetaObjectE@ABI_4_0 4:4.6.1
 _ZN6Kasten15DocumentManager5addedERK5QListIPNS_16AbstractDocumentEE@ABI_4_0 4:4.6.1
 _ZN6Kasten15DocumentManager7closingERK5QListIPNS_16AbstractDocumentEE@ABI_4_0 4:4.6.1
 _ZN6Kasten15DocumentManager8canCloseEPNS_16AbstractDocumentE@ABI_4_0 4:4.6.1
 _ZN6Kasten15DocumentManager8canCloseERK5QListIPNS_16AbstractDocumentEE@ABI_4_0 4:4.6.1
 _ZN6Kasten15DocumentManager8closeAllEv@ABI_4_0 4:4.6.1
 _ZN6Kasten15DocumentManager9setWidgetEP7QWidget@ABI_4_0 4:4.6.1
 _ZN6Kasten15DocumentManagerC1Ev@ABI_4_0 4:4.6.1
 _ZN6Kasten15DocumentManagerC2Ev@ABI_4_0 4:4.6.1
 _ZN6Kasten15DocumentManagerD0Ev@ABI_4_0 4:4.6.1
 _ZN6Kasten15DocumentManagerD1Ev@ABI_4_0 4:4.6.1
 _ZN6Kasten15DocumentManagerD2Ev@ABI_4_0 4:4.6.1
 _ZN6Kasten16AbstractDocument11qt_metacallEN11QMetaObject4CallEiPPv@ABI_4_0 4:4.6.1
 _ZN6Kasten16AbstractDocument11qt_metacastEPKc@ABI_4_0 4:4.6.1
 _ZN6Kasten16AbstractDocument15setSynchronizerEPNS_25AbstractModelSynchronizerE@ABI_4_0 4:4.6.1
 _ZN6Kasten16AbstractDocument16staticMetaObjectE@ABI_4_0 4:4.6.1
 _ZN6Kasten16AbstractDocument19setLiveSynchronizerEPNS_25AbstractModelSynchronizerE@ABI_4_0 4:4.6.1
 _ZN6Kasten16AbstractDocument19synchronizerChangedEPNS_25AbstractModelSynchronizerE@ABI_4_0 4:4.6.1
 _ZN6Kasten16AbstractDocument21localSyncStateChangedENS_14LocalSyncStateE@ABI_4_0 4:4.6.1
 _ZN6Kasten16AbstractDocument22remoteSyncStateChangedENS_15RemoteSyncStateE@ABI_4_0 4:4.6.1
 _ZN6Kasten16AbstractDocument23liveSynchronizerChangedEPNS_25AbstractModelSynchronizerE@ABI_4_0 4:4.6.1
 _ZN6Kasten16AbstractDocument5setIdERK7QString@ABI_4_0 4:4.6.1
 _ZN6Kasten16AbstractDocumentC1Ev@ABI_4_0 4:4.6.1
 _ZN6Kasten16AbstractDocumentC2Ev@ABI_4_0 4:4.6.1
 _ZN6Kasten16AbstractDocumentD0Ev@ABI_4_0 4:4.6.1
 _ZN6Kasten16AbstractDocumentD1Ev@ABI_4_0 4:4.6.1
 _ZN6Kasten16AbstractDocumentD2Ev@ABI_4_0 4:4.6.1
 _ZN6Kasten17AbstractExportJob11qt_metacallEN11QMetaObject4CallEiPPv@ABI_4_0 4:4.6.1
 _ZN6Kasten17AbstractExportJob11qt_metacastEPKc@ABI_4_0 4:4.6.1
 _ZN6Kasten17AbstractExportJob11setDocumentEPNS_16AbstractDocumentE@ABI_4_0 4:4.6.1
 _ZN6Kasten17AbstractExportJob14documentLoadedEPNS_16AbstractDocumentE@ABI_4_0 4:4.6.1
 _ZN6Kasten17AbstractExportJob16staticMetaObjectE@ABI_4_0 4:4.6.1
 _ZN6Kasten17AbstractExportJobC1EPNS_24AbstractExportJobPrivateE@ABI_4_0 4:4.6.1
 _ZN6Kasten17AbstractExportJobC1Ev@ABI_4_0 4:4.6.1
 _ZN6Kasten17AbstractExportJobC2EPNS_24AbstractExportJobPrivateE@ABI_4_0 4:4.6.1
 _ZN6Kasten17AbstractExportJobC2Ev@ABI_4_0 4:4.6.1
 _ZN6Kasten17AbstractExportJobD0Ev@ABI_4_0 4:4.6.1
 _ZN6Kasten17AbstractExportJobD1Ev@ABI_4_0 4:4.6.1
 _ZN6Kasten17AbstractExportJobD2Ev@ABI_4_0 4:4.6.1
 _ZN6Kasten17ModelCodecManager11qt_metacallEN11QMetaObject4CallEiPPv@ABI_4_0 4:4.6.1
 _ZN6Kasten17ModelCodecManager11qt_metacastEPKc@ABI_4_0 4:4.6.1
 _ZN6Kasten17ModelCodecManager11setDecodersERK5QListIPNS_26AbstractModelStreamDecoderEE@ABI_4_0 4:4.6.1
 _ZN6Kasten17ModelCodecManager11setEncodersERK5QListIPNS_26AbstractModelStreamEncoderEE@ABI_4_0 4:4.6.1
 _ZN6Kasten17ModelCodecManager13setGeneratorsERK5QListIPNS_26AbstractModelDataGeneratorEE@ABI_4_0 4:4.6.1
 _ZN6Kasten17ModelCodecManager14encodeToStreamEPNS_26AbstractModelStreamEncoderEPNS_13AbstractModelEPKNS_22AbstractModelSelectionE@ABI_4_0 4:4.6.1
 _ZN6Kasten17ModelCodecManager14exportDocumentEPNS_21AbstractModelExporterEPNS_13AbstractModelEPKNS_22AbstractModelSelectionE@ABI_4_0 4:4.6.1
 _ZN6Kasten17ModelCodecManager16staticMetaObjectE@ABI_4_0 4:4.6.1
 _ZN6Kasten17ModelCodecManager18setOverwriteDialogEPNS_23AbstractOverwriteDialogE@ABI_4_0 4:4.6.1
 _ZN6Kasten17ModelCodecManager9setWidgetEP7QWidget@ABI_4_0 4:4.6.1
 _ZN6Kasten17ModelCodecManagerC1EPNS_15DocumentManagerE@ABI_4_0 4:4.6.1
 _ZN6Kasten17ModelCodecManagerC2EPNS_15DocumentManagerE@ABI_4_0 4:4.6.1
 _ZN6Kasten17ModelCodecManagerD0Ev@ABI_4_0 4:4.6.1
 _ZN6Kasten17ModelCodecManagerD1Ev@ABI_4_0 4:4.6.1
 _ZN6Kasten17ModelCodecManagerD2Ev@ABI_4_0 4:4.6.1
 _ZN6Kasten18AbstractConnectJob11qt_metacallEN11QMetaObject4CallEiPPv@ABI_4_0 4:4.6.1
 _ZN6Kasten18AbstractConnectJob11qt_metacastEPKc@ABI_4_0 4:4.6.1
 _ZN6Kasten18AbstractConnectJob16staticMetaObjectE@ABI_4_0 4:4.6.1
 _ZN6Kasten18AbstractConnectJobC1EPNS_25AbstractConnectJobPrivateE@ABI_4_0 4:4.6.1
 _ZN6Kasten18AbstractConnectJobC1Ev@ABI_4_0 4:4.6.1
 _ZN6Kasten18AbstractConnectJobC2EPNS_25AbstractConnectJobPrivateE@ABI_4_0 4:4.6.1
 _ZN6Kasten18AbstractConnectJobC2Ev@ABI_4_0 4:4.6.1
 _ZN6Kasten18AbstractConnectJobD0Ev@ABI_4_0 4:4.6.1
 _ZN6Kasten18AbstractConnectJobD1Ev@ABI_4_0 4:4.6.1
 _ZN6Kasten18AbstractConnectJobD2Ev@ABI_4_0 4:4.6.1
 _ZN6Kasten19DocumentSyncManager11qt_metacallEN11QMetaObject4CallEiPPv@ABI_4_0 4:4.6.1
 _ZN6Kasten19DocumentSyncManager11qt_metacastEPKc@ABI_4_0 4:4.6.1
 _ZN6Kasten19DocumentSyncManager15setSynchronizerEPNS_16AbstractDocumentE@ABI_4_0 4:4.6.1
 _ZN6Kasten19DocumentSyncManager16onDocumentLoadedEPNS_16AbstractDocumentE@ABI_4_0 4:4.6.1
 _ZN6Kasten19DocumentSyncManager16onDocumentsAddedERK5QListIPNS_16AbstractDocumentEE@ABI_4_0 4:4.6.1
 _ZN6Kasten19DocumentSyncManager16staticMetaObjectE@ABI_4_0 4:4.6.1
 _ZN6Kasten19DocumentSyncManager18onDocumentsClosingERK5QListIPNS_16AbstractDocumentEE@ABI_4_0 4:4.6.1
 _ZN6Kasten19DocumentSyncManager18setOverwriteDialogEPNS_23AbstractOverwriteDialogE@ABI_4_0 4:4.6.1
 _ZN6Kasten19DocumentSyncManager20setSaveDiscardDialogEPNS_25AbstractSaveDiscardDialogE@ABI_4_0 4:4.6.1
 _ZN6Kasten19DocumentSyncManager30setDocumentSynchronizerFactoryEPNS_32AbstractModelSynchronizerFactoryE@ABI_4_0 4:4.6.1
 _ZN6Kasten19DocumentSyncManager4loadERK4KUrl@ABI_4_0 4:4.6.1
 _ZN6Kasten19DocumentSyncManager4loadEv@ABI_4_0 4:4.6.1
 _ZN6Kasten19DocumentSyncManager4saveEPNS_16AbstractDocumentE@ABI_4_0 4:4.6.1
 _ZN6Kasten19DocumentSyncManager6reloadEPNS_16AbstractDocumentE@ABI_4_0 4:4.6.1
 _ZN6Kasten19DocumentSyncManager7urlUsedERK4KUrl@ABI_4_0 4:4.6.1
 _ZN6Kasten19DocumentSyncManager8canCloseEPNS_16AbstractDocumentE@ABI_4_0 4:4.6.1
 _ZN6Kasten19DocumentSyncManager9setWidgetEP7QWidget@ABI_4_0 4:4.6.1
 _ZN6Kasten19DocumentSyncManagerC1EPNS_15DocumentManagerE@ABI_4_0 4:4.6.1
 _ZN6Kasten19DocumentSyncManagerC2EPNS_15DocumentManagerE@ABI_4_0 4:4.6.1
 _ZN6Kasten19DocumentSyncManagerD0Ev@ABI_4_0 4:4.6.1
 _ZN6Kasten19DocumentSyncManagerD1Ev@ABI_4_0 4:4.6.1
 _ZN6Kasten19DocumentSyncManagerD2Ev@ABI_4_0 4:4.6.1
 _ZN6Kasten19DocumentVersionDataC1EiRK7QString@ABI_4_0 4:4.6.1
 _ZN6Kasten19DocumentVersionDataC2EiRK7QString@ABI_4_0 4:4.6.1
 _ZN6Kasten21AbstractModelExporter11qt_metacallEN11QMetaObject4CallEiPPv@ABI_4_0 4:4.6.1
 _ZN6Kasten21AbstractModelExporter11qt_metacastEPKc@ABI_4_0 4:4.6.1
 _ZN6Kasten21AbstractModelExporter16staticMetaObjectE@ABI_4_0 4:4.6.1
 _ZN6Kasten21AbstractModelExporterC1EPNS_28AbstractModelExporterPrivateE@ABI_4_0 4:4.6.1
 _ZN6Kasten21AbstractModelExporterC1ERK7QStringS3_@ABI_4_0 4:4.6.1
 _ZN6Kasten21AbstractModelExporterC2EPNS_28AbstractModelExporterPrivateE@ABI_4_0 4:4.6.1
 _ZN6Kasten21AbstractModelExporterC2ERK7QStringS3_@ABI_4_0 4:4.6.1
 _ZN6Kasten21AbstractModelExporterD0Ev@ABI_4_0 4:4.6.1
 _ZN6Kasten21AbstractModelExporterD1Ev@ABI_4_0 4:4.6.1
 _ZN6Kasten21AbstractModelExporterD2Ev@ABI_4_0 4:4.6.1
 _ZN6Kasten21DocumentCreateManager11qt_metacallEN11QMetaObject4CallEiPPv@ABI_4_0 4:4.6.1
 _ZN6Kasten21DocumentCreateManager11qt_metacastEPKc@ABI_4_0 4:4.6.1
 _ZN6Kasten21DocumentCreateManager16staticMetaObjectE@ABI_4_0 4:4.6.1
 _ZN6Kasten21DocumentCreateManager17createNewFromDataEPK9QMimeDatab@ABI_4_0 4:4.6.1
 _ZN6Kasten21DocumentCreateManager18setDocumentFactoryEPNS_23AbstractDocumentFactoryE@ABI_4_0 4:4.6.1
 _ZN6Kasten21DocumentCreateManager9createNewEv@ABI_4_0 4:4.6.1
 _ZN6Kasten21DocumentCreateManager9setWidgetEP7QWidget@ABI_4_0 4:4.6.1
 _ZN6Kasten21DocumentCreateManagerC1EPNS_15DocumentManagerE@ABI_4_0 4:4.6.1
 _ZN6Kasten21DocumentCreateManagerC2EPNS_15DocumentManagerE@ABI_4_0 4:4.6.1
 _ZN6Kasten21DocumentCreateManagerD0Ev@ABI_4_0 4:4.6.1
 _ZN6Kasten21DocumentCreateManagerD1Ev@ABI_4_0 4:4.6.1
 _ZN6Kasten21DocumentCreateManagerD2Ev@ABI_4_0 4:4.6.1
 _ZN6Kasten22AbstractModelSelectionC1Ev@ABI_4_0 4:4.6.1
 _ZN6Kasten22AbstractModelSelectionC2Ev@ABI_4_0 4:4.6.1
 _ZN6Kasten22AbstractModelSelectionD0Ev@ABI_4_0 4:4.6.1
 _ZN6Kasten22AbstractModelSelectionD1Ev@ABI_4_0 4:4.6.1
 _ZN6Kasten22AbstractModelSelectionD2Ev@ABI_4_0 4:4.6.1
 _ZN6Kasten23AbstractDocumentFactory11qt_metacallEN11QMetaObject4CallEiPPv@ABI_4_0 4:4.6.1
 _ZN6Kasten23AbstractDocumentFactory11qt_metacastEPKc@ABI_4_0 4:4.6.1
 _ZN6Kasten23AbstractDocumentFactory14createFromDataEPK9QMimeDatab@ABI_4_0 4:4.6.1
 _ZN6Kasten23AbstractDocumentFactory16staticMetaObjectE@ABI_4_0 4:4.6.1
 _ZN6Kasten23AbstractDocumentFactory17canCreateFromDataEPK9QMimeData@ABI_4_0 4:4.6.1
 _ZN6Kasten23AbstractDocumentFactoryD0Ev@ABI_4_0 4:4.6.1
 _ZN6Kasten23AbstractDocumentFactoryD1Ev@ABI_4_0 4:4.6.1
 _ZN6Kasten23AbstractDocumentFactoryD2Ev@ABI_4_0 4:4.6.1
 _ZN6Kasten23AbstractSyncToRemoteJob11qt_metacallEN11QMetaObject4CallEiPPv@ABI_4_0 4:4.6.1
 _ZN6Kasten23AbstractSyncToRemoteJob11qt_metacastEPKc@ABI_4_0 4:4.6.1
 _ZN6Kasten23AbstractSyncToRemoteJob16staticMetaObjectE@ABI_4_0 4:4.6.1
 _ZN6Kasten23AbstractSyncToRemoteJobC1EPNS_30AbstractSyncToRemoteJobPrivateE@ABI_4_0 4:4.6.1
 _ZN6Kasten23AbstractSyncToRemoteJobC1Ev@ABI_4_0 4:4.6.1
 _ZN6Kasten23AbstractSyncToRemoteJobC2EPNS_30AbstractSyncToRemoteJobPrivateE@ABI_4_0 4:4.6.1
 _ZN6Kasten23AbstractSyncToRemoteJobC2Ev@ABI_4_0 4:4.6.1
 _ZN6Kasten23AbstractSyncToRemoteJobD0Ev@ABI_4_0 4:4.6.1
 _ZN6Kasten23AbstractSyncToRemoteJobD1Ev@ABI_4_0 4:4.6.1
 _ZN6Kasten23AbstractSyncToRemoteJobD2Ev@ABI_4_0 4:4.6.1
 _ZN6Kasten23ModelDataGenerateThread11qt_metacallEN11QMetaObject4CallEiPPv@ABI_4_0 4:4.6.1
 _ZN6Kasten23ModelDataGenerateThread11qt_metacastEPKc@ABI_4_0 4:4.6.1
 _ZN6Kasten23ModelDataGenerateThread16staticMetaObjectE@ABI_4_0 4:4.6.1
 _ZN6Kasten23ModelDataGenerateThread3runEv@ABI_4_0 4:4.6.1
 _ZN6Kasten23ModelDataGenerateThread9generatedEP9QMimeData@ABI_4_0 4:4.6.1
 _ZN6Kasten23ModelDataGenerateThreadD0Ev@ABI_4_0 4:4.6.1
 _ZN6Kasten23ModelDataGenerateThreadD1Ev@ABI_4_0 4:4.6.1
 _ZN6Kasten23ModelDataGenerateThreadD2Ev@ABI_4_0 4:4.6.1
 _ZN6Kasten23ModelStreamEncodeThread11qt_metacallEN11QMetaObject4CallEiPPv@ABI_4_0 4:4.6.1
 _ZN6Kasten23ModelStreamEncodeThread11qt_metacastEPKc@ABI_4_0 4:4.6.1
 _ZN6Kasten23ModelStreamEncodeThread13modelExportedEb@ABI_4_0 4:4.6.1
 _ZN6Kasten23ModelStreamEncodeThread16staticMetaObjectE@ABI_4_0 4:4.6.1
 _ZN6Kasten23ModelStreamEncodeThread3runEv@ABI_4_0 4:4.6.1
 _ZN6Kasten23ModelStreamEncodeThreadD0Ev@ABI_4_0 4:4.6.1
 _ZN6Kasten23ModelStreamEncodeThreadD1Ev@ABI_4_0 4:4.6.1
 _ZN6Kasten23ModelStreamEncodeThreadD2Ev@ABI_4_0 4:4.6.1
 _ZN6Kasten25AbstractFileSystemLoadJob11qt_metacallEN11QMetaObject4CallEiPPv@ABI_4_0 4:4.6.1
 _ZN6Kasten25AbstractFileSystemLoadJob11qt_metacastEPKc@ABI_4_0 4:4.6.1
 _ZN6Kasten25AbstractFileSystemLoadJob11setDocumentEPNS_16AbstractDocumentE@ABI_4_0 4:4.6.1
 _ZN6Kasten25AbstractFileSystemLoadJob16staticMetaObjectE@ABI_4_0 4:4.6.1
 _ZN6Kasten25AbstractFileSystemLoadJob5startEv@ABI_4_0 4:4.6.1
 _ZN6Kasten25AbstractFileSystemLoadJobC1EPNS_35AbstractModelFileSystemSynchronizerERK4KUrl@ABI_4_0 4:4.6.1
 _ZN6Kasten25AbstractFileSystemLoadJobC2EPNS_35AbstractModelFileSystemSynchronizerERK4KUrl@ABI_4_0 4:4.6.1
 _ZN6Kasten25AbstractFileSystemLoadJobD0Ev@ABI_4_0 4:4.6.1
 _ZN6Kasten25AbstractFileSystemLoadJobD1Ev@ABI_4_0 4:4.6.1
 _ZN6Kasten25AbstractFileSystemLoadJobD2Ev@ABI_4_0 4:4.6.1
 _ZN6Kasten25AbstractModelSynchronizer10urlChangedERK4KUrl@ABI_4_0 4:4.6.1
 _ZN6Kasten25AbstractModelSynchronizer11qt_metacallEN11QMetaObject4CallEiPPv@ABI_4_0 4:4.6.1
 _ZN6Kasten25AbstractModelSynchronizer11qt_metacastEPKc@ABI_4_0 4:4.6.1
 _ZN6Kasten25AbstractModelSynchronizer12synchronizedEv@ABI_4_0 4:4.6.1
 _ZN6Kasten25AbstractModelSynchronizer16staticMetaObjectE@ABI_4_0 4:4.6.1
 _ZN6Kasten25AbstractModelSynchronizer22remoteSyncStateChangedENS_15RemoteSyncStateE@ABI_4_0 4:4.6.1
 _ZN6Kasten25AbstractModelSynchronizer6setUrlERK4KUrl@ABI_4_0 4:4.6.1
 _ZN6Kasten25AbstractModelSynchronizerC1EPNS_32AbstractModelSynchronizerPrivateE@ABI_4_0 4:4.6.1
 _ZN6Kasten25AbstractModelSynchronizerC1Ev@ABI_4_0 4:4.6.1
 _ZN6Kasten25AbstractModelSynchronizerC2EPNS_32AbstractModelSynchronizerPrivateE@ABI_4_0 4:4.6.1
 _ZN6Kasten25AbstractModelSynchronizerC2Ev@ABI_4_0 4:4.6.1
 _ZN6Kasten25AbstractModelSynchronizerD0Ev@ABI_4_0 4:4.6.1
 _ZN6Kasten25AbstractModelSynchronizerD1Ev@ABI_4_0 4:4.6.1
 _ZN6Kasten25AbstractModelSynchronizerD2Ev@ABI_4_0 4:4.6.1
 _ZN6Kasten25AbstractSyncFromRemoteJob11qt_metacallEN11QMetaObject4CallEiPPv@ABI_4_0 4:4.6.1
 _ZN6Kasten25AbstractSyncFromRemoteJob11qt_metacastEPKc@ABI_4_0 4:4.6.1
 _ZN6Kasten25AbstractSyncFromRemoteJob16staticMetaObjectE@ABI_4_0 4:4.6.1
 _ZN6Kasten25AbstractSyncFromRemoteJobC1EPNS_32AbstractSyncFromRemoteJobPrivateE@ABI_4_0 4:4.6.1
 _ZN6Kasten25AbstractSyncFromRemoteJobC1Ev@ABI_4_0 4:4.6.1
 _ZN6Kasten25AbstractSyncFromRemoteJobC2EPNS_32AbstractSyncFromRemoteJobPrivateE@ABI_4_0 4:4.6.1
 _ZN6Kasten25AbstractSyncFromRemoteJobC2Ev@ABI_4_0 4:4.6.1
 _ZN6Kasten25AbstractSyncFromRemoteJobD0Ev@ABI_4_0 4:4.6.1
 _ZN6Kasten25AbstractSyncFromRemoteJobD1Ev@ABI_4_0 4:4.6.1
 _ZN6Kasten25AbstractSyncFromRemoteJobD2Ev@ABI_4_0 4:4.6.1
 _ZN6Kasten25AbstractSyncWithRemoteJob11qt_metacallEN11QMetaObject4CallEiPPv@ABI_4_0 4:4.6.1
 _ZN6Kasten25AbstractSyncWithRemoteJob11qt_metacastEPKc@ABI_4_0 4:4.6.1
 _ZN6Kasten25AbstractSyncWithRemoteJob16staticMetaObjectE@ABI_4_0 4:4.6.1
 _ZN6Kasten25AbstractSyncWithRemoteJobC1EPNS_32AbstractSyncWithRemoteJobPrivateE@ABI_4_0 4:4.6.1
 _ZN6Kasten25AbstractSyncWithRemoteJobC1Ev@ABI_4_0 4:4.6.1
 _ZN6Kasten25AbstractSyncWithRemoteJobC2EPNS_32AbstractSyncWithRemoteJobPrivateE@ABI_4_0 4:4.6.1
 _ZN6Kasten25AbstractSyncWithRemoteJobC2Ev@ABI_4_0 4:4.6.1
 _ZN6Kasten25AbstractSyncWithRemoteJobD0Ev@ABI_4_0 4:4.6.1
 _ZN6Kasten25AbstractSyncWithRemoteJobD1Ev@ABI_4_0 4:4.6.1
 _ZN6Kasten25AbstractSyncWithRemoteJobD2Ev@ABI_4_0 4:4.6.1
 _ZN6Kasten26AbstractModelDataGenerator11qt_metacallEN11QMetaObject4CallEiPPv@ABI_4_0 4:4.6.1
 _ZN6Kasten26AbstractModelDataGenerator11qt_metacastEPKc@ABI_4_0 4:4.6.1
 _ZN6Kasten26AbstractModelDataGenerator16staticMetaObjectE@ABI_4_0 4:4.6.1
 _ZN6Kasten26AbstractModelDataGeneratorC1EPNS_33AbstractModelDataGeneratorPrivateE@ABI_4_0 4:4.6.1
 _ZN6Kasten26AbstractModelDataGeneratorC1ERK7QStringS3_NS0_5FlagsE@ABI_4_0 4:4.6.1
 _ZN6Kasten26AbstractModelDataGeneratorC2EPNS_33AbstractModelDataGeneratorPrivateE@ABI_4_0 4:4.6.1
 _ZN6Kasten26AbstractModelDataGeneratorC2ERK7QStringS3_NS0_5FlagsE@ABI_4_0 4:4.6.1
 _ZN6Kasten26AbstractModelDataGeneratorD0Ev@ABI_4_0 4:4.6.1
 _ZN6Kasten26AbstractModelDataGeneratorD1Ev@ABI_4_0 4:4.6.1
 _ZN6Kasten26AbstractModelDataGeneratorD2Ev@ABI_4_0 4:4.6.1
 _ZN6Kasten26AbstractModelStreamEncoder11qt_metacallEN11QMetaObject4CallEiPPv@ABI_4_0 4:4.6.1
 _ZN6Kasten26AbstractModelStreamEncoder11qt_metacastEPKc@ABI_4_0 4:4.6.1
 _ZN6Kasten26AbstractModelStreamEncoder16staticMetaObjectE@ABI_4_0 4:4.6.1
 _ZN6Kasten26AbstractModelStreamEncoderC1EPNS_33AbstractModelStreamEncoderPrivateE@ABI_4_0 4:4.6.1
 _ZN6Kasten26AbstractModelStreamEncoderC1ERK7QStringS3_S3_@ABI_4_0 4:4.6.1
 _ZN6Kasten26AbstractModelStreamEncoderC2EPNS_33AbstractModelStreamEncoderPrivateE@ABI_4_0 4:4.6.1
 _ZN6Kasten26AbstractModelStreamEncoderC2ERK7QStringS3_S3_@ABI_4_0 4:4.6.1
 _ZN6Kasten26AbstractModelStreamEncoderD0Ev@ABI_4_0 4:4.6.1
 _ZN6Kasten26AbstractModelStreamEncoderD1Ev@ABI_4_0 4:4.6.1
 _ZN6Kasten26AbstractModelStreamEncoderD2Ev@ABI_4_0 4:4.6.1
 _ZN6Kasten27AbstractFileSystemExportJob11qt_metacallEN11QMetaObject4CallEiPPv@ABI_4_0 4:4.6.1
 _ZN6Kasten27AbstractFileSystemExportJob11qt_metacastEPKc@ABI_4_0 4:4.6.1
 _ZN6Kasten27AbstractFileSystemExportJob14completeExportEb@ABI_4_0 4:4.6.1
 _ZN6Kasten27AbstractFileSystemExportJob16staticMetaObjectE@ABI_4_0 4:4.6.1
 _ZN6Kasten27AbstractFileSystemExportJob5startEv@ABI_4_0 4:4.6.1
 _ZN6Kasten27AbstractFileSystemExportJobC1EPNS_13AbstractModelEPKNS_22AbstractModelSelectionERK4KUrl@ABI_4_0 4:4.6.1
 _ZN6Kasten27AbstractFileSystemExportJobC1EPNS_34AbstractFileSystemExportJobPrivateE@ABI_4_0 4:4.6.1
 _ZN6Kasten27AbstractFileSystemExportJobC2EPNS_13AbstractModelEPKNS_22AbstractModelSelectionERK4KUrl@ABI_4_0 4:4.6.1
 _ZN6Kasten27AbstractFileSystemExportJobC2EPNS_34AbstractFileSystemExportJobPrivateE@ABI_4_0 4:4.6.1
 _ZN6Kasten27AbstractFileSystemExportJobD0Ev@ABI_4_0 4:4.6.1
 _ZN6Kasten27AbstractFileSystemExportJobD1Ev@ABI_4_0 4:4.6.1
 _ZN6Kasten27AbstractFileSystemExportJobD2Ev@ABI_4_0 4:4.6.1
 _ZN6Kasten28AbstractFileSystemConnectJob11qt_metacallEN11QMetaObject4CallEiPPv@ABI_4_0 4:4.6.1
 _ZN6Kasten28AbstractFileSystemConnectJob11qt_metacastEPKc@ABI_4_0 4:4.6.1
 _ZN6Kasten28AbstractFileSystemConnectJob16staticMetaObjectE@ABI_4_0 4:4.6.1
 _ZN6Kasten28AbstractFileSystemConnectJob5startEv@ABI_4_0 4:4.6.1
 _ZN6Kasten28AbstractFileSystemConnectJob8completeEb@ABI_4_0 4:4.6.1
 _ZN6Kasten28AbstractFileSystemConnectJobC1EPNS_35AbstractModelFileSystemSynchronizerEPNS_16AbstractDocumentERK4KUrlNS_25AbstractModelSynchronizer13ConnectOptionE@ABI_4_0 4:4.6.1
 _ZN6Kasten28AbstractFileSystemConnectJobC2EPNS_35AbstractModelFileSystemSynchronizerEPNS_16AbstractDocumentERK4KUrlNS_25AbstractModelSynchronizer13ConnectOptionE@ABI_4_0 4:4.6.1
 _ZN6Kasten28AbstractFileSystemConnectJobD0Ev@ABI_4_0 4:4.6.1
 _ZN6Kasten28AbstractFileSystemConnectJobD1Ev@ABI_4_0 4:4.6.1
 _ZN6Kasten28AbstractFileSystemConnectJobD2Ev@ABI_4_0 4:4.6.1
 _ZN6Kasten30ModelEncoderFileSystemExporter11qt_metacallEN11QMetaObject4CallEiPPv@ABI_4_0 4:4.6.1
 _ZN6Kasten30ModelEncoderFileSystemExporter11qt_metacastEPKc@ABI_4_0 4:4.6.1
 _ZN6Kasten30ModelEncoderFileSystemExporter11startExportEPNS_13AbstractModelEPKNS_22AbstractModelSelectionERK4KUrl@ABI_4_0 4:4.6.1
 _ZN6Kasten30ModelEncoderFileSystemExporter16staticMetaObjectE@ABI_4_0 4:4.6.1
 _ZN6Kasten30ModelEncoderFileSystemExporterC1EPNS_26AbstractModelStreamEncoderE@ABI_4_0 4:4.6.1
 _ZN6Kasten30ModelEncoderFileSystemExporterC2EPNS_26AbstractModelStreamEncoderE@ABI_4_0 4:4.6.1
 _ZN6Kasten30ModelEncoderFileSystemExporterD0Ev@ABI_4_0 4:4.6.1
 _ZN6Kasten30ModelEncoderFileSystemExporterD1Ev@ABI_4_0 4:4.6.1
 _ZN6Kasten30ModelEncoderFileSystemExporterD2Ev@ABI_4_0 4:4.6.1
 _ZN6Kasten31ModelEncoderFileSystemExportJob11qt_metacallEN11QMetaObject4CallEiPPv@ABI_4_0 4:4.6.1
 _ZN6Kasten31ModelEncoderFileSystemExportJob11qt_metacastEPKc@ABI_4_0 4:4.6.1
 _ZN6Kasten31ModelEncoderFileSystemExportJob16staticMetaObjectE@ABI_4_0 4:4.6.1
 _ZN6Kasten31ModelEncoderFileSystemExportJob17startExportToFileEv@ABI_4_0 4:4.6.1
 _ZN6Kasten31ModelEncoderFileSystemExportJobC1EPNS_13AbstractModelEPKNS_22AbstractModelSelectionERK4KUrlPNS_26AbstractModelStreamEncoderE@ABI_4_0 4:4.6.1
 _ZN6Kasten31ModelEncoderFileSystemExportJobC2EPNS_13AbstractModelEPKNS_22AbstractModelSelectionERK4KUrlPNS_26AbstractModelStreamEncoderE@ABI_4_0 4:4.6.1
 _ZN6Kasten31ModelEncoderFileSystemExportJobD0Ev@ABI_4_0 4:4.6.1
 _ZN6Kasten31ModelEncoderFileSystemExportJobD1Ev@ABI_4_0 4:4.6.1
 _ZN6Kasten31ModelEncoderFileSystemExportJobD2Ev@ABI_4_0 4:4.6.1
 _ZN6Kasten32AbstractModelSynchronizerFactory11qt_metacallEN11QMetaObject4CallEiPPv@ABI_4_0 4:4.6.1
 _ZN6Kasten32AbstractModelSynchronizerFactory11qt_metacastEPKc@ABI_4_0 4:4.6.1
 _ZN6Kasten32AbstractModelSynchronizerFactory16staticMetaObjectE@ABI_4_0 4:4.6.1
 _ZN6Kasten32AbstractModelSynchronizerFactoryD0Ev@ABI_4_0 4:4.6.1
 _ZN6Kasten32AbstractModelSynchronizerFactoryD1Ev@ABI_4_0 4:4.6.1
 _ZN6Kasten32AbstractModelSynchronizerFactoryD2Ev@ABI_4_0 4:4.6.1
 _ZN6Kasten33AbstractFileSystemSyncToRemoteJob11qt_metacallEN11QMetaObject4CallEiPPv@ABI_4_0 4:4.6.1
 _ZN6Kasten33AbstractFileSystemSyncToRemoteJob11qt_metacastEPKc@ABI_4_0 4:4.6.1
 _ZN6Kasten33AbstractFileSystemSyncToRemoteJob13completeWriteEb@ABI_4_0 4:4.6.1
 _ZN6Kasten33AbstractFileSystemSyncToRemoteJob16staticMetaObjectE@ABI_4_0 4:4.6.1
 _ZN6Kasten33AbstractFileSystemSyncToRemoteJob5startEv@ABI_4_0 4:4.6.1
 _ZN6Kasten33AbstractFileSystemSyncToRemoteJobC1EPNS_35AbstractModelFileSystemSynchronizerE@ABI_4_0 4:4.6.1
 _ZN6Kasten33AbstractFileSystemSyncToRemoteJobC2EPNS_35AbstractModelFileSystemSynchronizerE@ABI_4_0 4:4.6.1
 _ZN6Kasten33AbstractFileSystemSyncToRemoteJobD0Ev@ABI_4_0 4:4.6.1
 _ZN6Kasten33AbstractFileSystemSyncToRemoteJobD1Ev@ABI_4_0 4:4.6.1
 _ZN6Kasten33AbstractFileSystemSyncToRemoteJobD2Ev@ABI_4_0 4:4.6.1
 _ZN6Kasten35AbstractFileSystemSyncFromRemoteJob11qt_metacallEN11QMetaObject4CallEiPPv@ABI_4_0 4:4.6.1
 _ZN6Kasten35AbstractFileSystemSyncFromRemoteJob11qt_metacastEPKc@ABI_4_0 4:4.6.1
 _ZN6Kasten35AbstractFileSystemSyncFromRemoteJob12completeReadEb@ABI_4_0 4:4.6.1
 _ZN6Kasten35AbstractFileSystemSyncFromRemoteJob16staticMetaObjectE@ABI_4_0 4:4.6.1
 _ZN6Kasten35AbstractFileSystemSyncFromRemoteJob5startEv@ABI_4_0 4:4.6.1
 _ZN6Kasten35AbstractFileSystemSyncFromRemoteJobC1EPNS_35AbstractModelFileSystemSynchronizerE@ABI_4_0 4:4.6.1
 _ZN6Kasten35AbstractFileSystemSyncFromRemoteJobC2EPNS_35AbstractModelFileSystemSynchronizerE@ABI_4_0 4:4.6.1
 _ZN6Kasten35AbstractFileSystemSyncFromRemoteJobD0Ev@ABI_4_0 4:4.6.1
 _ZN6Kasten35AbstractFileSystemSyncFromRemoteJobD1Ev@ABI_4_0 4:4.6.1
 _ZN6Kasten35AbstractFileSystemSyncFromRemoteJobD2Ev@ABI_4_0 4:4.6.1
 _ZN6Kasten35AbstractFileSystemSyncWithRemoteJob11qt_metacallEN11QMetaObject4CallEiPPv@ABI_4_0 4:4.6.1
 _ZN6Kasten35AbstractFileSystemSyncWithRemoteJob11qt_metacastEPKc@ABI_4_0 4:4.6.1
 _ZN6Kasten35AbstractFileSystemSyncWithRemoteJob12completeSyncEb@ABI_4_0 4:4.6.1
 _ZN6Kasten35AbstractFileSystemSyncWithRemoteJob16staticMetaObjectE@ABI_4_0 4:4.6.1
 _ZN6Kasten35AbstractFileSystemSyncWithRemoteJob5startEv@ABI_4_0 4:4.6.1
 _ZN6Kasten35AbstractFileSystemSyncWithRemoteJobC1EPNS_35AbstractModelFileSystemSynchronizerERK4KUrlNS_25AbstractModelSynchronizer13ConnectOptionE@ABI_4_0 4:4.6.1
 _ZN6Kasten35AbstractFileSystemSyncWithRemoteJobC2EPNS_35AbstractModelFileSystemSynchronizerERK4KUrlNS_25AbstractModelSynchronizer13ConnectOptionE@ABI_4_0 4:4.6.1
 _ZN6Kasten35AbstractFileSystemSyncWithRemoteJobD0Ev@ABI_4_0 4:4.6.1
 _ZN6Kasten35AbstractFileSystemSyncWithRemoteJobD1Ev@ABI_4_0 4:4.6.1
 _ZN6Kasten35AbstractFileSystemSyncWithRemoteJobD2Ev@ABI_4_0 4:4.6.1
 _ZN6Kasten35AbstractModelFileSystemSynchronizer11qt_metacallEN11QMetaObject4CallEiPPv@ABI_4_0 4:4.6.1
 _ZN6Kasten35AbstractModelFileSystemSynchronizer11qt_metacastEPKc@ABI_4_0 4:4.6.1
 _ZN6Kasten35AbstractModelFileSystemSynchronizer14setRemoteStateENS_15RemoteSyncStateE@ABI_4_0 4:4.6.1
 _ZN6Kasten35AbstractModelFileSystemSynchronizer16staticMetaObjectE@ABI_4_0 4:4.6.1
 _ZN6Kasten35AbstractModelFileSystemSynchronizer16stopFileWatchingEv@ABI_4_0 4:4.6.1
 _ZN6Kasten35AbstractModelFileSystemSynchronizer17pauseFileWatchingEv@ABI_4_0 4:4.6.1
 _ZN6Kasten35AbstractModelFileSystemSynchronizer17startFileWatchingEv@ABI_4_0 4:4.6.1
 _ZN6Kasten35AbstractModelFileSystemSynchronizer19stopNetworkWatchingEv@ABI_4_0 4:4.6.1
 _ZN6Kasten35AbstractModelFileSystemSynchronizer19unpauseFileWatchingEv@ABI_4_0 4:4.6.1
 _ZN6Kasten35AbstractModelFileSystemSynchronizer20startNetworkWatchingEv@ABI_4_0 4:4.6.1
 _ZN6Kasten35AbstractModelFileSystemSynchronizer21setFileDateTimeOnSyncERK9QDateTime@ABI_4_0 4:4.6.1
 _ZN6Kasten35AbstractModelFileSystemSynchronizerC1EPNS_42AbstractModelFileSystemSynchronizerPrivateE@ABI_4_0 4:4.6.1
 _ZN6Kasten35AbstractModelFileSystemSynchronizerC1Ev@ABI_4_0 4:4.6.1
 _ZN6Kasten35AbstractModelFileSystemSynchronizerC2EPNS_42AbstractModelFileSystemSynchronizerPrivateE@ABI_4_0 4:4.6.1
 _ZN6Kasten35AbstractModelFileSystemSynchronizerC2Ev@ABI_4_0 4:4.6.1
 _ZN6Kasten35AbstractModelFileSystemSynchronizerD0Ev@ABI_4_0 4:4.6.1
 _ZN6Kasten35AbstractModelFileSystemSynchronizerD1Ev@ABI_4_0 4:4.6.1
 _ZN6Kasten35AbstractModelFileSystemSynchronizerD2Ev@ABI_4_0 4:4.6.1
 _ZN6Kasten6Person8setEgoIdEi@ABI_4_0 4:4.6.1
 _ZN6Kasten6Person9createEgoEv@ABI_4_0 4:4.6.1
 _ZN6Kasten6PersonC1ERK7QStringRK5KIcon@ABI_4_0 4:4.6.1
 _ZN6Kasten6PersonC1ERKS0_@ABI_4_0 4:4.6.1
 _ZN6Kasten6PersonC1Ev@ABI_4_0 4:4.6.1
 _ZN6Kasten6PersonC2ERK7QStringRK5KIcon@ABI_4_0 4:4.6.1
 _ZN6Kasten6PersonC2ERKS0_@ABI_4_0 4:4.6.1
 _ZN6Kasten6PersonC2Ev@ABI_4_0 4:4.6.1
 _ZN6Kasten6PersonD1Ev@ABI_4_0 4:4.6.1
 _ZN6Kasten6PersonD2Ev@ABI_4_0 4:4.6.1
 _ZN6Kasten6PersonaSERKS0_@ABI_4_0 4:4.6.1
 _ZNK6Kasten12AbstractTool10metaObjectEv@ABI_4_0 4:4.6.1
 _ZNK6Kasten13AbstractModel10isReadOnlyEv@ABI_4_0 4:4.6.1
 _ZNK6Kasten13AbstractModel10metaObjectEv@ABI_4_0 4:4.6.1
 _ZNK6Kasten13AbstractModel12isModifiableEv@ABI_4_0 4:4.6.1
 _ZNK6Kasten13AbstractModel9baseModelEv@ABI_4_0 4:4.6.1
 _ZNK6Kasten15AbstractLoadJob10metaObjectEv@ABI_4_0 4:4.6.1
 _ZNK6Kasten15AbstractLoadJob8documentEv@ABI_4_0 4:4.6.1
 _ZNK6Kasten15DocumentManager10metaObjectEv@ABI_4_0 4:4.6.1
 _ZNK6Kasten15DocumentManager13documentOfUrlERK4KUrl@ABI_4_0 4:4.6.1
 _ZNK6Kasten15DocumentManager4urlsEv@ABI_4_0 4:4.6.1
 _ZNK6Kasten15DocumentManager9documentsEv@ABI_4_0 4:4.6.1
 _ZNK6Kasten16AbstractDocument10metaObjectEv@ABI_4_0 4:4.6.1
 _ZNK6Kasten16AbstractDocument12synchronizerEv@ABI_4_0 4:4.6.1
 _ZNK6Kasten16AbstractDocument15remoteSyncStateEv@ABI_4_0 4:4.6.1
 _ZNK6Kasten16AbstractDocument16liveSynchronizerEv@ABI_4_0 4:4.6.1
 _ZNK6Kasten16AbstractDocument2idEv@ABI_4_0 4:4.6.1
 _ZNK6Kasten17AbstractExportJob10metaObjectEv@ABI_4_0 4:4.6.1
 _ZNK6Kasten17AbstractExportJob8documentEv@ABI_4_0 4:4.6.1
 _ZNK6Kasten17ModelCodecManager10metaObjectEv@ABI_4_0 4:4.6.1
 _ZNK6Kasten17ModelCodecManager11decoderListEv@ABI_4_0 4:4.6.1
 _ZNK6Kasten17ModelCodecManager11encoderListEPNS_13AbstractModelEPKNS_22AbstractModelSelectionE@ABI_4_0 4:4.6.1
 _ZNK6Kasten17ModelCodecManager12exporterListEPNS_13AbstractModelEPKNS_22AbstractModelSelectionE@ABI_4_0 4:4.6.1
 _ZNK6Kasten17ModelCodecManager13generatorListEv@ABI_4_0 4:4.6.1
 _ZNK6Kasten18AbstractConnectJob10metaObjectEv@ABI_4_0 4:4.6.1
 _ZNK6Kasten19DocumentSyncManager10metaObjectEv@ABI_4_0 4:4.6.1
 _ZNK6Kasten19DocumentSyncManager23hasSynchronizerForLocalERK7QString@ABI_4_0 4:4.6.1
 _ZNK6Kasten19DocumentSyncManager5urlOfEPNS_16AbstractDocumentE@ABI_4_0 4:4.6.1
 _ZNK6Kasten19DocumentVersionData13changeCommentEv@ABI_4_0 4:4.6.1
 _ZNK6Kasten19DocumentVersionData2idEv@ABI_4_0 4:4.6.1
 _ZNK6Kasten21AbstractModelExporter10metaObjectEv@ABI_4_0 4:4.6.1
 _ZNK6Kasten21AbstractModelExporter14remoteMimeTypeEv@ABI_4_0 4:4.6.1
 _ZNK6Kasten21AbstractModelExporter14remoteTypeNameEv@ABI_4_0 4:4.6.1
 _ZNK6Kasten21DocumentCreateManager10metaObjectEv@ABI_4_0 4:4.6.1
 _ZNK6Kasten21DocumentCreateManager20canCreateNewFromDataEPK9QMimeData@ABI_4_0 4:4.6.1
 _ZNK6Kasten23AbstractDocumentFactory10metaObjectEv@ABI_4_0 4:4.6.1
 _ZNK6Kasten23AbstractSyncToRemoteJob10metaObjectEv@ABI_4_0 4:4.6.1
 _ZNK6Kasten23ModelDataGenerateThread10metaObjectEv@ABI_4_0 4:4.6.1
 _ZNK6Kasten23ModelStreamEncodeThread10metaObjectEv@ABI_4_0 4:4.6.1
 _ZNK6Kasten25AbstractFileSystemLoadJob10metaObjectEv@ABI_4_0 4:4.6.1
 _ZNK6Kasten25AbstractFileSystemLoadJob12synchronizerEv@ABI_4_0 4:4.6.1
 _ZNK6Kasten25AbstractFileSystemLoadJob3urlEv@ABI_4_0 4:4.6.1
 _ZNK6Kasten25AbstractFileSystemLoadJob4fileEv@ABI_4_0 4:4.6.1
 _ZNK6Kasten25AbstractFileSystemLoadJob6widgetEv@ABI_4_0 4:4.6.1
 _ZNK6Kasten25AbstractModelSynchronizer10dataPulledEi@ABI_4_0 4:4.6.1
 _ZNK6Kasten25AbstractModelSynchronizer10dataPushedEi@ABI_4_0 4:4.6.1
 _ZNK6Kasten25AbstractModelSynchronizer10metaObjectEv@ABI_4_0 4:4.6.1
 _ZNK6Kasten25AbstractModelSynchronizer3urlEv@ABI_4_0 4:4.6.1
 _ZNK6Kasten25AbstractSyncFromRemoteJob10metaObjectEv@ABI_4_0 4:4.6.1
 _ZNK6Kasten25AbstractSyncWithRemoteJob10metaObjectEv@ABI_4_0 4:4.6.1
 _ZNK6Kasten26AbstractModelDataGenerator10metaObjectEv@ABI_4_0 4:4.6.1
 _ZNK6Kasten26AbstractModelDataGenerator5flagsEv@ABI_4_0 4:4.6.1
 _ZNK6Kasten26AbstractModelDataGenerator8mimeTypeEv@ABI_4_0 4:4.6.1
 _ZNK6Kasten26AbstractModelDataGenerator8typeNameEv@ABI_4_0 4:4.6.1
 _ZNK6Kasten26AbstractModelStreamEncoder10metaObjectEv@ABI_4_0 4:4.6.1
 _ZNK6Kasten26AbstractModelStreamEncoder14remoteMimeTypeEv@ABI_4_0 4:4.6.1
 _ZNK6Kasten26AbstractModelStreamEncoder14remoteTypeNameEv@ABI_4_0 4:4.6.1
 _ZNK6Kasten26AbstractModelStreamEncoder23remoteClipboardMimeTypeEv@ABI_4_0 4:4.6.1
 _ZNK6Kasten27AbstractFileSystemExportJob10metaObjectEv@ABI_4_0 4:4.6.1
 _ZNK6Kasten27AbstractFileSystemExportJob4fileEv@ABI_4_0 4:4.6.1
 _ZNK6Kasten27AbstractFileSystemExportJob5modelEv@ABI_4_0 4:4.6.1
 _ZNK6Kasten27AbstractFileSystemExportJob6widgetEv@ABI_4_0 4:4.6.1
 _ZNK6Kasten27AbstractFileSystemExportJob9selectionEv@ABI_4_0 4:4.6.1
 _ZNK6Kasten28AbstractFileSystemConnectJob10metaObjectEv@ABI_4_0 4:4.6.1
 _ZNK6Kasten28AbstractFileSystemConnectJob12synchronizerEv@ABI_4_0 4:4.6.1
 _ZNK6Kasten28AbstractFileSystemConnectJob4fileEv@ABI_4_0 4:4.6.1
 _ZNK6Kasten28AbstractFileSystemConnectJob6widgetEv@ABI_4_0 4:4.6.1
 _ZNK6Kasten28AbstractFileSystemConnectJob8documentEv@ABI_4_0 4:4.6.1
 _ZNK6Kasten30ModelEncoderFileSystemExporter10metaObjectEv@ABI_4_0 4:4.6.1
 _ZNK6Kasten30ModelEncoderFileSystemExporter13modelTypeNameEPNS_13AbstractModelEPKNS_22AbstractModelSelectionE@ABI_4_0 4:4.6.1
 _ZNK6Kasten30ModelEncoderFileSystemExporter7encoderEv@ABI_4_0 4:4.6.1
 _ZNK6Kasten31ModelEncoderFileSystemExportJob10metaObjectEv@ABI_4_0 4:4.6.1
 _ZNK6Kasten32AbstractModelSynchronizerFactory10metaObjectEv@ABI_4_0 4:4.6.1
 _ZNK6Kasten33AbstractFileSystemSyncToRemoteJob10metaObjectEv@ABI_4_0 4:4.6.1
 _ZNK6Kasten33AbstractFileSystemSyncToRemoteJob12synchronizerEv@ABI_4_0 4:4.6.1
 _ZNK6Kasten33AbstractFileSystemSyncToRemoteJob4fileEv@ABI_4_0 4:4.6.1
 _ZNK6Kasten33AbstractFileSystemSyncToRemoteJob6widgetEv@ABI_4_0 4:4.6.1
 _ZNK6Kasten35AbstractFileSystemSyncFromRemoteJob10metaObjectEv@ABI_4_0 4:4.6.1
 _ZNK6Kasten35AbstractFileSystemSyncFromRemoteJob12synchronizerEv@ABI_4_0 4:4.6.1
 _ZNK6Kasten35AbstractFileSystemSyncFromRemoteJob4fileEv@ABI_4_0 4:4.6.1
 _ZNK6Kasten35AbstractFileSystemSyncFromRemoteJob6widgetEv@ABI_4_0 4:4.6.1
 _ZNK6Kasten35AbstractFileSystemSyncWithRemoteJob10metaObjectEv@ABI_4_0 4:4.6.1
 _ZNK6Kasten35AbstractFileSystemSyncWithRemoteJob12synchronizerEv@ABI_4_0 4:4.6.1
 _ZNK6Kasten35AbstractFileSystemSyncWithRemoteJob4fileEv@ABI_4_0 4:4.6.1
 _ZNK6Kasten35AbstractFileSystemSyncWithRemoteJob6widgetEv@ABI_4_0 4:4.6.1
 _ZNK6Kasten35AbstractModelFileSystemSynchronizer10metaObjectEv@ABI_4_0 4:4.6.1
 _ZNK6Kasten35AbstractModelFileSystemSynchronizer15remoteSyncStateEv@ABI_4_0 4:4.6.1
 _ZNK6Kasten6Person4nameEv@ABI_4_0 4:4.6.1
 _ZNK6Kasten6Person8faceIconEv@ABI_4_0 4:4.6.1
 _ZNK6Kasten6PersoneqERKS0_@ABI_4_0 4:4.6.1
 _ZTIN6Kasten12AbstractToolE@ABI_4_0 4:4.6.1
 _ZTIN6Kasten13AbstractModelE@ABI_4_0 4:4.6.1
 _ZTIN6Kasten15AbstractLoadJobE@ABI_4_0 4:4.6.1
 _ZTIN6Kasten15DocumentManagerE@ABI_4_0 4:4.6.1
 _ZTIN6Kasten16AbstractDocumentE@ABI_4_0 4:4.6.1
 _ZTIN6Kasten17AbstractExportJobE@ABI_4_0 4:4.6.1
 _ZTIN6Kasten17ModelCodecManagerE@ABI_4_0 4:4.6.1
 _ZTIN6Kasten18AbstractConnectJobE@ABI_4_0 4:4.6.1
 _ZTIN6Kasten19DocumentSyncManagerE@ABI_4_0 4:4.6.1
 _ZTIN6Kasten21AbstractModelExporterE@ABI_4_0 4:4.6.1
 _ZTIN6Kasten21DocumentCreateManagerE@ABI_4_0 4:4.6.1
 _ZTIN6Kasten22AbstractModelSelectionE@ABI_4_0 4:4.6.1
 _ZTIN6Kasten23AbstractDocumentFactoryE@ABI_4_0 4:4.6.1
 _ZTIN6Kasten23AbstractSyncToRemoteJobE@ABI_4_0 4:4.6.1
 _ZTIN6Kasten23ModelDataGenerateThreadE@ABI_4_0 4:4.6.1
 _ZTIN6Kasten23ModelStreamEncodeThreadE@ABI_4_0 4:4.6.1
 _ZTIN6Kasten25AbstractFileSystemLoadJobE@ABI_4_0 4:4.6.1
 _ZTIN6Kasten25AbstractModelSynchronizerE@ABI_4_0 4:4.6.1
 _ZTIN6Kasten25AbstractSyncFromRemoteJobE@ABI_4_0 4:4.6.1
 _ZTIN6Kasten25AbstractSyncWithRemoteJobE@ABI_4_0 4:4.6.1
 _ZTIN6Kasten26AbstractModelDataGeneratorE@ABI_4_0 4:4.6.1
 _ZTIN6Kasten26AbstractModelStreamEncoderE@ABI_4_0 4:4.6.1
 _ZTIN6Kasten27AbstractFileSystemExportJobE@ABI_4_0 4:4.6.1
 _ZTIN6Kasten28AbstractFileSystemConnectJobE@ABI_4_0 4:4.6.1
 _ZTIN6Kasten30ModelEncoderFileSystemExporterE@ABI_4_0 4:4.6.1
 _ZTIN6Kasten31ModelEncoderFileSystemExportJobE@ABI_4_0 4:4.6.1
 _ZTIN6Kasten32AbstractModelSynchronizerFactoryE@ABI_4_0 4:4.6.1
 _ZTIN6Kasten33AbstractFileSystemSyncToRemoteJobE@ABI_4_0 4:4.6.1
 _ZTIN6Kasten35AbstractFileSystemSyncFromRemoteJobE@ABI_4_0 4:4.6.1
 _ZTIN6Kasten35AbstractFileSystemSyncWithRemoteJobE@ABI_4_0 4:4.6.1
 _ZTIN6Kasten35AbstractModelFileSystemSynchronizerE@ABI_4_0 4:4.6.1
 _ZTSN6Kasten12AbstractToolE@ABI_4_0 4:4.6.1
 _ZTSN6Kasten13AbstractModelE@ABI_4_0 4:4.6.1
 _ZTSN6Kasten15AbstractLoadJobE@ABI_4_0 4:4.6.1
 _ZTSN6Kasten15DocumentManagerE@ABI_4_0 4:4.6.1
 _ZTSN6Kasten16AbstractDocumentE@ABI_4_0 4:4.6.1
 _ZTSN6Kasten17AbstractExportJobE@ABI_4_0 4:4.6.1
 _ZTSN6Kasten17ModelCodecManagerE@ABI_4_0 4:4.6.1
 _ZTSN6Kasten18AbstractConnectJobE@ABI_4_0 4:4.6.1
 _ZTSN6Kasten19DocumentSyncManagerE@ABI_4_0 4:4.6.1
 _ZTSN6Kasten21AbstractModelExporterE@ABI_4_0 4:4.6.1
 _ZTSN6Kasten21DocumentCreateManagerE@ABI_4_0 4:4.6.1
 _ZTSN6Kasten22AbstractModelSelectionE@ABI_4_0 4:4.6.1
 _ZTSN6Kasten23AbstractDocumentFactoryE@ABI_4_0 4:4.6.1
 _ZTSN6Kasten23AbstractSyncToRemoteJobE@ABI_4_0 4:4.6.1
 _ZTSN6Kasten23ModelDataGenerateThreadE@ABI_4_0 4:4.6.1
 _ZTSN6Kasten23ModelStreamEncodeThreadE@ABI_4_0 4:4.6.1
 _ZTSN6Kasten25AbstractFileSystemLoadJobE@ABI_4_0 4:4.6.1
 _ZTSN6Kasten25AbstractModelSynchronizerE@ABI_4_0 4:4.6.1
 _ZTSN6Kasten25AbstractSyncFromRemoteJobE@ABI_4_0 4:4.6.1
 _ZTSN6Kasten25AbstractSyncWithRemoteJobE@ABI_4_0 4:4.6.1
 _ZTSN6Kasten26AbstractModelDataGeneratorE@ABI_4_0 4:4.6.1
 _ZTSN6Kasten26AbstractModelStreamEncoderE@ABI_4_0 4:4.6.1
 _ZTSN6Kasten27AbstractFileSystemExportJobE@ABI_4_0 4:4.6.1
 _ZTSN6Kasten28AbstractFileSystemConnectJobE@ABI_4_0 4:4.6.1
 _ZTSN6Kasten30ModelEncoderFileSystemExporterE@ABI_4_0 4:4.6.1
 _ZTSN6Kasten31ModelEncoderFileSystemExportJobE@ABI_4_0 4:4.6.1
 _ZTSN6Kasten32AbstractModelSynchronizerFactoryE@ABI_4_0 4:4.6.1
 _ZTSN6Kasten33AbstractFileSystemSyncToRemoteJobE@ABI_4_0 4:4.6.1
 _ZTSN6Kasten35AbstractFileSystemSyncFromRemoteJobE@ABI_4_0 4:4.6.1
 _ZTSN6Kasten35AbstractFileSystemSyncWithRemoteJobE@ABI_4_0 4:4.6.1
 _ZTSN6Kasten35AbstractModelFileSystemSynchronizerE@ABI_4_0 4:4.6.1
 _ZTVN6Kasten12AbstractToolE@ABI_4_0 4:4.6.1
 _ZTVN6Kasten13AbstractModelE@ABI_4_0 4:4.6.1
 _ZTVN6Kasten15AbstractLoadJobE@ABI_4_0 4:4.6.1
 _ZTVN6Kasten15DocumentManagerE@ABI_4_0 4:4.6.1
 _ZTVN6Kasten16AbstractDocumentE@ABI_4_0 4:4.6.1
 _ZTVN6Kasten17AbstractExportJobE@ABI_4_0 4:4.6.1
 _ZTVN6Kasten17ModelCodecManagerE@ABI_4_0 4:4.6.1
 _ZTVN6Kasten18AbstractConnectJobE@ABI_4_0 4:4.6.1
 _ZTVN6Kasten19DocumentSyncManagerE@ABI_4_0 4:4.6.1
 _ZTVN6Kasten21AbstractModelExporterE@ABI_4_0 4:4.6.1
 _ZTVN6Kasten21DocumentCreateManagerE@ABI_4_0 4:4.6.1
 _ZTVN6Kasten22AbstractModelSelectionE@ABI_4_0 4:4.6.1
 _ZTVN6Kasten23AbstractDocumentFactoryE@ABI_4_0 4:4.6.1
 _ZTVN6Kasten23AbstractSyncToRemoteJobE@ABI_4_0 4:4.6.1
 _ZTVN6Kasten23ModelDataGenerateThreadE@ABI_4_0 4:4.6.1
 _ZTVN6Kasten23ModelStreamEncodeThreadE@ABI_4_0 4:4.6.1
 _ZTVN6Kasten25AbstractFileSystemLoadJobE@ABI_4_0 4:4.6.1
 _ZTVN6Kasten25AbstractModelSynchronizerE@ABI_4_0 4:4.6.1
 _ZTVN6Kasten25AbstractSyncFromRemoteJobE@ABI_4_0 4:4.6.1
 _ZTVN6Kasten25AbstractSyncWithRemoteJobE@ABI_4_0 4:4.6.1
 _ZTVN6Kasten26AbstractModelDataGeneratorE@ABI_4_0 4:4.6.1
 _ZTVN6Kasten26AbstractModelStreamEncoderE@ABI_4_0 4:4.6.1
 _ZTVN6Kasten27AbstractFileSystemExportJobE@ABI_4_0 4:4.6.1
 _ZTVN6Kasten28AbstractFileSystemConnectJobE@ABI_4_0 4:4.6.1
 _ZTVN6Kasten30ModelEncoderFileSystemExporterE@ABI_4_0 4:4.6.1
 _ZTVN6Kasten31ModelEncoderFileSystemExportJobE@ABI_4_0 4:4.6.1
 _ZTVN6Kasten32AbstractModelSynchronizerFactoryE@ABI_4_0 4:4.6.1
 _ZTVN6Kasten33AbstractFileSystemSyncToRemoteJobE@ABI_4_0 4:4.6.1
 _ZTVN6Kasten35AbstractFileSystemSyncFromRemoteJobE@ABI_4_0 4:4.6.1
 _ZTVN6Kasten35AbstractFileSystemSyncWithRemoteJobE@ABI_4_0 4:4.6.1
 _ZTVN6Kasten35AbstractModelFileSystemSynchronizerE@ABI_4_0 4:4.6.1
