# SymbolsHelper-Confirmed: 4:4.6.3 amd64
libkastencontrollers.so.4 libkastencontrollers4 #MINVER#
* Build-Depends-Package: okteta-dev
 ABI_4_0@ABI_4_0 4:4.6.1
 _ZN6Kasten12TerminalTool11qt_metacallEN11QMetaObject4CallEiPPv@ABI_4_0 4:4.6.1
 _ZN6Kasten12TerminalTool11qt_metacastEPKc@ABI_4_0 4:4.6.1
 _ZN6Kasten12TerminalTool14setTargetModelEPNS_13AbstractModelE@ABI_4_0 4:4.6.1
 _ZN6Kasten12TerminalTool16staticMetaObjectE@ABI_4_0 4:4.6.1
 _ZN6Kasten12TerminalTool17currentUrlChangedERK4KUrl@ABI_4_0 4:4.6.1
 _ZN6Kasten12TerminalToolC1EPNS_15DocumentManagerE@ABI_4_0 4:4.6.1
 _ZN6Kasten12TerminalToolC2EPNS_15DocumentManagerE@ABI_4_0 4:4.6.1
 _ZN6Kasten12TerminalToolD0Ev@ABI_4_0 4:4.6.1
 _ZN6Kasten12TerminalToolD1Ev@ABI_4_0 4:4.6.1
 _ZN6Kasten12TerminalToolD2Ev@ABI_4_0 4:4.6.1
 _ZN6Kasten13DocumentsTool11qt_metacallEN11QMetaObject4CallEiPPv@ABI_4_0 4:4.6.1
 _ZN6Kasten13DocumentsTool11qt_metacastEPKc@ABI_4_0 4:4.6.1
 _ZN6Kasten13DocumentsTool14documentsAddedERK5QListIPNS_16AbstractDocumentEE@ABI_4_0 4:4.6.1
 _ZN6Kasten13DocumentsTool14setTargetModelEPNS_13AbstractModelE@ABI_4_0 4:4.6.1
 _ZN6Kasten13DocumentsTool16documentsClosingERK5QListIPNS_16AbstractDocumentEE@ABI_4_0 4:4.6.1
 _ZN6Kasten13DocumentsTool16staticMetaObjectE@ABI_4_0 4:4.6.1
 _ZN6Kasten13DocumentsTool19setFocussedDocumentEPNS_16AbstractDocumentE@ABI_4_0 4:4.6.1
 _ZN6Kasten13DocumentsTool23focussedDocumentChangedEPNS_16AbstractDocumentE@ABI_4_0 4:4.6.1
 _ZN6Kasten13DocumentsToolC1EPNS_15DocumentManagerE@ABI_4_0 4:4.6.1
 _ZN6Kasten13DocumentsToolC2EPNS_15DocumentManagerE@ABI_4_0 4:4.6.1
 _ZN6Kasten13DocumentsToolD0Ev@ABI_4_0 4:4.6.1
 _ZN6Kasten13DocumentsToolD1Ev@ABI_4_0 4:4.6.1
 _ZN6Kasten13DocumentsToolD2Ev@ABI_4_0 4:4.6.1
 _ZN6Kasten14QuitController11qt_metacallEN11QMetaObject4CallEiPPv@ABI_4_0 4:4.6.1
 _ZN6Kasten14QuitController11qt_metacastEPKc@ABI_4_0 4:4.6.1
 _ZN6Kasten14QuitController14setTargetModelEPNS_13AbstractModelE@ABI_4_0 4:4.6.1
 _ZN6Kasten14QuitController16staticMetaObjectE@ABI_4_0 4:4.6.1
 _ZN6Kasten14QuitController4quitEv@ABI_4_0 4:4.6.1
 _ZN6Kasten14QuitControllerC1EPNS_8KProgramEP13KXmlGuiWindow@ABI_4_0 4:4.6.1
 _ZN6Kasten14QuitControllerC2EPNS_8KProgramEP13KXmlGuiWindow@ABI_4_0 4:4.6.1
 _ZN6Kasten14ZoomController11qt_metacallEN11QMetaObject4CallEiPPv@ABI_4_0 4:4.6.1
 _ZN6Kasten14ZoomController11qt_metacastEPKc@ABI_4_0 4:4.6.1
 _ZN6Kasten14ZoomController14setTargetModelEPNS_13AbstractModelE@ABI_4_0 4:4.6.1
 _ZN6Kasten14ZoomController16staticMetaObjectE@ABI_4_0 4:4.6.1
 _ZN6Kasten14ZoomController17onZoomLevelChangeEd@ABI_4_0 4:4.6.1
 _ZN6Kasten14ZoomController6zoomInEv@ABI_4_0 4:4.6.1
 _ZN6Kasten14ZoomController7zoomOutEv@ABI_4_0 4:4.6.1
 _ZN6Kasten14ZoomControllerC1EP13KXMLGUIClient@ABI_4_0 4:4.6.1
 _ZN6Kasten14ZoomControllerC2EP13KXMLGUIClient@ABI_4_0 4:4.6.1
 _ZN6Kasten15CloseController11qt_metacallEN11QMetaObject4CallEiPPv@ABI_4_0 4:4.6.1
 _ZN6Kasten15CloseController11qt_metacastEPKc@ABI_4_0 4:4.6.1
 _ZN6Kasten15CloseController13closeAllOtherEv@ABI_4_0 4:4.6.1
 _ZN6Kasten15CloseController14setTargetModelEPNS_13AbstractModelE@ABI_4_0 4:4.6.1
 _ZN6Kasten15CloseController16staticMetaObjectE@ABI_4_0 4:4.6.1
 _ZN6Kasten15CloseController18onDocumentsChangedEv@ABI_4_0 4:4.6.1
 _ZN6Kasten15CloseController5closeEv@ABI_4_0 4:4.6.1
 _ZN6Kasten15CloseController8closeAllEv@ABI_4_0 4:4.6.1
 _ZN6Kasten15CloseControllerC1EPNS_15DocumentManagerEP13KXMLGUIClient@ABI_4_0 4:4.6.1
 _ZN6Kasten15CloseControllerC2EPNS_15DocumentManagerEP13KXMLGUIClient@ABI_4_0 4:4.6.1
 _ZN6Kasten15VersionViewTool11qt_metacallEN11QMetaObject4CallEiPPv@ABI_4_0 4:4.6.1
 _ZN6Kasten15VersionViewTool11qt_metacastEPKc@ABI_4_0 4:4.6.1
 _ZN6Kasten15VersionViewTool12modelChangedEPNS_13AbstractModelE@ABI_4_0 4:4.6.1
 _ZN6Kasten15VersionViewTool14setTargetModelEPNS_13AbstractModelE@ABI_4_0 4:4.6.1
 _ZN6Kasten15VersionViewTool16staticMetaObjectE@ABI_4_0 4:4.6.1
 _ZN6Kasten15VersionViewToolC1Ev@ABI_4_0 4:4.6.1
 _ZN6Kasten15VersionViewToolC2Ev@ABI_4_0 4:4.6.1
 _ZN6Kasten15VersionViewToolD0Ev@ABI_4_0 4:4.6.1
 _ZN6Kasten15VersionViewToolD1Ev@ABI_4_0 4:4.6.1
 _ZN6Kasten15VersionViewToolD2Ev@ABI_4_0 4:4.6.1
 _ZN6Kasten16CopyAsController11qt_metacallEN11QMetaObject4CallEiPPv@ABI_4_0 4:4.6.1
 _ZN6Kasten16CopyAsController11qt_metacastEPKc@ABI_4_0 4:4.6.1
 _ZN6Kasten16CopyAsController13updateActionsEv@ABI_4_0 4:4.6.1
 _ZN6Kasten16CopyAsController14setTargetModelEPNS_13AbstractModelE@ABI_4_0 4:4.6.1
 _ZN6Kasten16CopyAsController16staticMetaObjectE@ABI_4_0 4:4.6.1
 _ZN6Kasten16CopyAsController17onActionTriggeredEP7QAction@ABI_4_0 4:4.6.1
 _ZN6Kasten16CopyAsControllerC1EPNS_11ViewManagerEPNS_15DocumentManagerEP13KXMLGUIClient@ABI_4_0 4:4.6.1
 _ZN6Kasten16CopyAsControllerC2EPNS_11ViewManagerEPNS_15DocumentManagerEP13KXMLGUIClient@ABI_4_0 4:4.6.1
 _ZN6Kasten16ExportController11qt_metacallEN11QMetaObject4CallEiPPv@ABI_4_0 4:4.6.1
 _ZN6Kasten16ExportController11qt_metacastEPKc@ABI_4_0 4:4.6.1
 _ZN6Kasten16ExportController13updateActionsEv@ABI_4_0 4:4.6.1
 _ZN6Kasten16ExportController14setTargetModelEPNS_13AbstractModelE@ABI_4_0 4:4.6.1
 _ZN6Kasten16ExportController16staticMetaObjectE@ABI_4_0 4:4.6.1
 _ZN6Kasten16ExportController17onActionTriggeredEP7QAction@ABI_4_0 4:4.6.1
 _ZN6Kasten16ExportControllerC1EPNS_11ViewManagerEPNS_15DocumentManagerEP13KXMLGUIClient@ABI_4_0 4:4.6.1
 _ZN6Kasten16ExportControllerC2EPNS_11ViewManagerEPNS_15DocumentManagerEP13KXMLGUIClient@ABI_4_0 4:4.6.1
 _ZN6Kasten16InsertController11qt_metacallEN11QMetaObject4CallEiPPv@ABI_4_0 4:4.6.1
 _ZN6Kasten16InsertController11qt_metacastEPKc@ABI_4_0 4:4.6.1
 _ZN6Kasten16InsertController13updateActionsEv@ABI_4_0 4:4.6.1
 _ZN6Kasten16InsertController14setTargetModelEPNS_13AbstractModelE@ABI_4_0 4:4.6.1
 _ZN6Kasten16InsertController16staticMetaObjectE@ABI_4_0 4:4.6.1
 _ZN6Kasten16InsertController17onActionTriggeredEP7QAction@ABI_4_0 4:4.6.1
 _ZN6Kasten16InsertController17onReadOnlyChangedEb@ABI_4_0 4:4.6.1
 _ZN6Kasten16InsertControllerC1EPNS_11ViewManagerEPNS_15DocumentManagerEP13KXMLGUIClient@ABI_4_0 4:4.6.1
 _ZN6Kasten16InsertControllerC2EPNS_11ViewManagerEPNS_15DocumentManagerEP13KXMLGUIClient@ABI_4_0 4:4.6.1
 _ZN6Kasten16LoaderController10loadRecentERK4KUrl@ABI_4_0 4:4.6.1
 _ZN6Kasten16LoaderController11qt_metacallEN11QMetaObject4CallEiPPv@ABI_4_0 4:4.6.1
 _ZN6Kasten16LoaderController11qt_metacastEPKc@ABI_4_0 4:4.6.1
 _ZN6Kasten16LoaderController14setTargetModelEPNS_13AbstractModelE@ABI_4_0 4:4.6.1
 _ZN6Kasten16LoaderController16staticMetaObjectE@ABI_4_0 4:4.6.1
 _ZN6Kasten16LoaderController4loadEv@ABI_4_0 4:4.6.1
 _ZN6Kasten16LoaderController9onUrlUsedERK4KUrl@ABI_4_0 4:4.6.1
 _ZN6Kasten16LoaderControllerC1EPNS_19DocumentSyncManagerEP13KXMLGUIClient@ABI_4_0 4:4.6.1
 _ZN6Kasten16LoaderControllerC2EPNS_19DocumentSyncManagerEP13KXMLGUIClient@ABI_4_0 4:4.6.1
 _ZN6Kasten16LoaderControllerD0Ev@ABI_4_0 4:4.6.1
 _ZN6Kasten16LoaderControllerD1Ev@ABI_4_0 4:4.6.1
 _ZN6Kasten16LoaderControllerD2Ev@ABI_4_0 4:4.6.1
 _ZN6Kasten16SelectController11qt_metacallEN11QMetaObject4CallEiPPv@ABI_4_0 4:4.6.1
 _ZN6Kasten16SelectController11qt_metacastEPKc@ABI_4_0 4:4.6.1
 _ZN6Kasten16SelectController14setTargetModelEPNS_13AbstractModelE@ABI_4_0 4:4.6.1
 _ZN6Kasten16SelectController16staticMetaObjectE@ABI_4_0 4:4.6.1
 _ZN6Kasten16SelectController24onHasSelectedDataChangedEb@ABI_4_0 4:4.6.1
 _ZN6Kasten16SelectController8unselectEv@ABI_4_0 4:4.6.1
 _ZN6Kasten16SelectController9selectAllEv@ABI_4_0 4:4.6.1
 _ZN6Kasten16SelectControllerC1EP13KXMLGUIClient@ABI_4_0 4:4.6.1
 _ZN6Kasten16SelectControllerC2EP13KXMLGUIClient@ABI_4_0 4:4.6.1
 _ZN6Kasten16TerminalToolViewC1EPNS_12TerminalToolE@ABI_4_0 4:4.6.1
 _ZN6Kasten16TerminalToolViewC2EPNS_12TerminalToolE@ABI_4_0 4:4.6.1
 _ZN6Kasten16TerminalToolViewD0Ev@ABI_4_0 4:4.6.1
 _ZN6Kasten16TerminalToolViewD1Ev@ABI_4_0 4:4.6.1
 _ZN6Kasten16TerminalToolViewD2Ev@ABI_4_0 4:4.6.1
 _ZN6Kasten17CreatorController11qt_metacallEN11QMetaObject4CallEiPPv@ABI_4_0 4:4.6.1
 _ZN6Kasten17CreatorController11qt_metacastEPKc@ABI_4_0 4:4.6.1
 _ZN6Kasten17CreatorController14setTargetModelEPNS_13AbstractModelE@ABI_4_0 4:4.6.1
 _ZN6Kasten17CreatorController16staticMetaObjectE@ABI_4_0 4:4.6.1
 _ZN6Kasten17CreatorController20onNewActionTriggeredEv@ABI_4_0 4:4.6.1
 _ZN6Kasten17CreatorController33onNewFromClipboardActionTriggeredEv@ABI_4_0 4:4.6.1
 _ZN6Kasten17CreatorController33onNewFromGeneratorActionTriggeredEv@ABI_4_0 4:4.6.1
 _ZN6Kasten17CreatorControllerC1EPNS_11ViewManagerEPNS_15DocumentManagerEP13KXMLGUIClient@ABI_4_0 4:4.6.1
 _ZN6Kasten17CreatorControllerC2EPNS_11ViewManagerEPNS_15DocumentManagerEP13KXMLGUIClient@ABI_4_0 4:4.6.1
 _ZN6Kasten17CreatorControllerD0Ev@ABI_4_0 4:4.6.1
 _ZN6Kasten17CreatorControllerD1Ev@ABI_4_0 4:4.6.1
 _ZN6Kasten17CreatorControllerD2Ev@ABI_4_0 4:4.6.1
 _ZN6Kasten17DocumentsToolViewC1EPNS_13DocumentsToolE@ABI_4_0 4:4.6.1
 _ZN6Kasten17DocumentsToolViewC2EPNS_13DocumentsToolE@ABI_4_0 4:4.6.1
 _ZN6Kasten17DocumentsToolViewD0Ev@ABI_4_0 4:4.6.1
 _ZN6Kasten17DocumentsToolViewD1Ev@ABI_4_0 4:4.6.1
 _ZN6Kasten17DocumentsToolViewD2Ev@ABI_4_0 4:4.6.1
 _ZN6Kasten17VersionController11qt_metacallEN11QMetaObject4CallEiPPv@ABI_4_0 4:4.6.1
 _ZN6Kasten17VersionController11qt_metacastEPKc@ABI_4_0 4:4.6.1
 _ZN6Kasten17VersionController14setTargetModelEPNS_13AbstractModelE@ABI_4_0 4:4.6.1
 _ZN6Kasten17VersionController16staticMetaObjectE@ABI_4_0 4:4.6.1
 _ZN6Kasten17VersionController17onReadOnlyChangedEb@ABI_4_0 4:4.6.1
 _ZN6Kasten17VersionController21onVersionIndexChangedEi@ABI_4_0 4:4.6.1
 _ZN6Kasten17VersionController27onNewerVersionMenuTriggeredEP7QAction@ABI_4_0 4:4.6.1
 _ZN6Kasten17VersionController27onOlderVersionMenuTriggeredEP7QAction@ABI_4_0 4:4.6.1
 _ZN6Kasten17VersionController28onSetToNewerVersionTriggeredEv@ABI_4_0 4:4.6.1
 _ZN6Kasten17VersionController28onSetToOlderVersionTriggeredEv@ABI_4_0 4:4.6.1
 _ZN6Kasten17VersionController29onNewerVersionMenuAboutToShowEv@ABI_4_0 4:4.6.1
 _ZN6Kasten17VersionController29onOlderVersionMenuAboutToShowEv@ABI_4_0 4:4.6.1
 _ZN6Kasten17VersionControllerC1EP13KXMLGUIClient@ABI_4_0 4:4.6.1
 _ZN6Kasten17VersionControllerC2EP13KXMLGUIClient@ABI_4_0 4:4.6.1
 _ZN6Kasten17ZoomBarController11qt_metacallEN11QMetaObject4CallEiPPv@ABI_4_0 4:4.6.1
 _ZN6Kasten17ZoomBarController11qt_metacastEPKc@ABI_4_0 4:4.6.1
 _ZN6Kasten17ZoomBarController14setTargetModelEPNS_13AbstractModelE@ABI_4_0 4:4.6.1
 _ZN6Kasten17ZoomBarController16staticMetaObjectE@ABI_4_0 4:4.6.1
 _ZN6Kasten17ZoomBarControllerC1EPNS_9StatusBarE@ABI_4_0 4:4.6.1
 _ZN6Kasten17ZoomBarControllerC2EPNS_9StatusBarE@ABI_4_0 4:4.6.1
 _ZN6Kasten18ReadOnlyController11qt_metacallEN11QMetaObject4CallEiPPv@ABI_4_0 4:4.6.1
 _ZN6Kasten18ReadOnlyController11qt_metacastEPKc@ABI_4_0 4:4.6.1
 _ZN6Kasten18ReadOnlyController11setReadOnlyEb@ABI_4_0 4:4.6.1
 _ZN6Kasten18ReadOnlyController14setTargetModelEPNS_13AbstractModelE@ABI_4_0 4:4.6.1
 _ZN6Kasten18ReadOnlyController16staticMetaObjectE@ABI_4_0 4:4.6.1
 _ZN6Kasten18ReadOnlyControllerC1EP13KXMLGUIClient@ABI_4_0 4:4.6.1
 _ZN6Kasten18ReadOnlyControllerC2EP13KXMLGUIClient@ABI_4_0 4:4.6.1
 _ZN6Kasten19ClipboardController11qt_metacallEN11QMetaObject4CallEiPPv@ABI_4_0 4:4.6.1
 _ZN6Kasten19ClipboardController11qt_metacastEPKc@ABI_4_0 4:4.6.1
 _ZN6Kasten19ClipboardController14setTargetModelEPNS_13AbstractModelE@ABI_4_0 4:4.6.1
 _ZN6Kasten19ClipboardController16staticMetaObjectE@ABI_4_0 4:4.6.1
 _ZN6Kasten19ClipboardController17onReadOnlyChangedEb@ABI_4_0 4:4.6.1
 _ZN6Kasten19ClipboardController22onClipboardDataChangedEv@ABI_4_0 4:4.6.1
 _ZN6Kasten19ClipboardController24onHasSelectedDataChangedEb@ABI_4_0 4:4.6.1
 _ZN6Kasten19ClipboardController3cutEv@ABI_4_0 4:4.6.1
 _ZN6Kasten19ClipboardController4copyEv@ABI_4_0 4:4.6.1
 _ZN6Kasten19ClipboardController5pasteEv@ABI_4_0 4:4.6.1
 _ZN6Kasten19ClipboardControllerC1EP13KXMLGUIClient@ABI_4_0 4:4.6.1
 _ZN6Kasten19ClipboardControllerC2EP13KXMLGUIClient@ABI_4_0 4:4.6.1
 _ZN6Kasten19SetRemoteController11qt_metacallEN11QMetaObject4CallEiPPv@ABI_4_0 4:4.6.1
 _ZN6Kasten19SetRemoteController11qt_metacastEPKc@ABI_4_0 4:4.6.1
 _ZN6Kasten19SetRemoteController14setTargetModelEPNS_13AbstractModelE@ABI_4_0 4:4.6.1
 _ZN6Kasten19SetRemoteController16staticMetaObjectE@ABI_4_0 4:4.6.1
 _ZN6Kasten19SetRemoteController6saveAsEv@ABI_4_0 4:4.6.1
 _ZN6Kasten19SetRemoteControllerC1EPNS_19DocumentSyncManagerEP13KXMLGUIClient@ABI_4_0 4:4.6.1
 _ZN6Kasten19SetRemoteControllerC2EPNS_19DocumentSyncManagerEP13KXMLGUIClient@ABI_4_0 4:4.6.1
 _ZN6Kasten19VersionViewToolViewC1EPNS_15VersionViewToolE@ABI_4_0 4:4.6.1
 _ZN6Kasten19VersionViewToolViewC2EPNS_15VersionViewToolE@ABI_4_0 4:4.6.1
 _ZN6Kasten19VersionViewToolViewD0Ev@ABI_4_0 4:4.6.1
 _ZN6Kasten19VersionViewToolViewD1Ev@ABI_4_0 4:4.6.1
 _ZN6Kasten19VersionViewToolViewD2Ev@ABI_4_0 4:4.6.1
 _ZN6Kasten20FullScreenController11qt_metacallEN11QMetaObject4CallEiPPv@ABI_4_0 4:4.6.1
 _ZN6Kasten20FullScreenController11qt_metacastEPKc@ABI_4_0 4:4.6.1
 _ZN6Kasten20FullScreenController14setTargetModelEPNS_13AbstractModelE@ABI_4_0 4:4.6.1
 _ZN6Kasten20FullScreenController16staticMetaObjectE@ABI_4_0 4:4.6.1
 _ZN6Kasten20FullScreenController16switchFullScreenEb@ABI_4_0 4:4.6.1
 _ZN6Kasten20FullScreenControllerC1EP13KXmlGuiWindow@ABI_4_0 4:4.6.1
 _ZN6Kasten20FullScreenControllerC2EP13KXmlGuiWindow@ABI_4_0 4:4.6.1
 _ZN6Kasten20SwitchViewController11qt_metacallEN11QMetaObject4CallEiPPv@ABI_4_0 4:4.6.1
 _ZN6Kasten20SwitchViewController11qt_metacastEPKc@ABI_4_0 4:4.6.1
 _ZN6Kasten20SwitchViewController13updateActionsEv@ABI_4_0 4:4.6.1
 _ZN6Kasten20SwitchViewController14setTargetModelEPNS_13AbstractModelE@ABI_4_0 4:4.6.1
 _ZN6Kasten20SwitchViewController16staticMetaObjectE@ABI_4_0 4:4.6.1
 _ZN6Kasten20SwitchViewController7forwardEv@ABI_4_0 4:4.6.1
 _ZN6Kasten20SwitchViewController8backwardEv@ABI_4_0 4:4.6.1
 _ZN6Kasten20SwitchViewControllerC1EPNS_20AbstractGroupedViewsEP13KXMLGUIClient@ABI_4_0 4:4.6.1
 _ZN6Kasten20SwitchViewControllerC2EPNS_20AbstractGroupedViewsEP13KXMLGUIClient@ABI_4_0 4:4.6.1
 _ZN6Kasten21FileSystemBrowserTool11qt_metacallEN11QMetaObject4CallEiPPv@ABI_4_0 4:4.6.1
 _ZN6Kasten21FileSystemBrowserTool11qt_metacastEPKc@ABI_4_0 4:4.6.1
 _ZN6Kasten21FileSystemBrowserTool14setTargetModelEPNS_13AbstractModelE@ABI_4_0 4:4.6.1
 _ZN6Kasten21FileSystemBrowserTool16staticMetaObjectE@ABI_4_0 4:4.6.1
 _ZN6Kasten21FileSystemBrowserTool20hasCurrentUrlChangedEb@ABI_4_0 4:4.6.1
 _ZN6Kasten21FileSystemBrowserTool4openERK4KUrl@ABI_4_0 4:4.6.1
 _ZN6Kasten21FileSystemBrowserToolC1EPNS_15DocumentManagerE@ABI_4_0 4:4.6.1
 _ZN6Kasten21FileSystemBrowserToolC2EPNS_15DocumentManagerE@ABI_4_0 4:4.6.1
 _ZN6Kasten21FileSystemBrowserToolD0Ev@ABI_4_0 4:4.6.1
 _ZN6Kasten21FileSystemBrowserToolD1Ev@ABI_4_0 4:4.6.1
 _ZN6Kasten21FileSystemBrowserToolD2Ev@ABI_4_0 4:4.6.1
 _ZN6Kasten21ModifiedBarController11qt_metacallEN11QMetaObject4CallEiPPv@ABI_4_0 4:4.6.1
 _ZN6Kasten21ModifiedBarController11qt_metacastEPKc@ABI_4_0 4:4.6.1
 _ZN6Kasten21ModifiedBarController14setTargetModelEPNS_13AbstractModelE@ABI_4_0 4:4.6.1
 _ZN6Kasten21ModifiedBarController16staticMetaObjectE@ABI_4_0 4:4.6.1
 _ZN6Kasten21ModifiedBarController23onLocalSyncStateChangedENS_14LocalSyncStateE@ABI_4_0 4:4.6.1
 _ZN6Kasten21ModifiedBarController24onRemoteSyncStateChangedENS_15RemoteSyncStateE@ABI_4_0 4:4.6.1
 _ZN6Kasten21ModifiedBarControllerC1EPNS_9StatusBarE@ABI_4_0 4:4.6.1
 _ZN6Kasten21ModifiedBarControllerC2EPNS_9StatusBarE@ABI_4_0 4:4.6.1
 _ZN6Kasten21ReadOnlyBarController11qt_metacallEN11QMetaObject4CallEiPPv@ABI_4_0 4:4.6.1
 _ZN6Kasten21ReadOnlyBarController11qt_metacastEPKc@ABI_4_0 4:4.6.1
 _ZN6Kasten21ReadOnlyBarController11setReadOnlyEb@ABI_4_0 4:4.6.1
 _ZN6Kasten21ReadOnlyBarController14setTargetModelEPNS_13AbstractModelE@ABI_4_0 4:4.6.1
 _ZN6Kasten21ReadOnlyBarController16staticMetaObjectE@ABI_4_0 4:4.6.1
 _ZN6Kasten21ReadOnlyBarControllerC1EPNS_9StatusBarE@ABI_4_0 4:4.6.1
 _ZN6Kasten21ReadOnlyBarControllerC2EPNS_9StatusBarE@ABI_4_0 4:4.6.1
 _ZN6Kasten21SynchronizeController11qt_metacallEN11QMetaObject4CallEiPPv@ABI_4_0 4:4.6.1
 _ZN6Kasten21SynchronizeController11qt_metacastEPKc@ABI_4_0 4:4.6.1
 _ZN6Kasten21SynchronizeController14setTargetModelEPNS_13AbstractModelE@ABI_4_0 4:4.6.1
 _ZN6Kasten21SynchronizeController16staticMetaObjectE@ABI_4_0 4:4.6.1
 _ZN6Kasten21SynchronizeController18onSyncStateChangedEv@ABI_4_0 4:4.6.1
 _ZN6Kasten21SynchronizeController20onSynchronizerChangeEPNS_25AbstractModelSynchronizerE@ABI_4_0 4:4.6.1
 _ZN6Kasten21SynchronizeController4saveEv@ABI_4_0 4:4.6.1
 _ZN6Kasten21SynchronizeController6reloadEv@ABI_4_0 4:4.6.1
 _ZN6Kasten21SynchronizeControllerC1EPNS_19DocumentSyncManagerEP13KXMLGUIClient@ABI_4_0 4:4.6.1
 _ZN6Kasten21SynchronizeControllerC2EPNS_19DocumentSyncManagerEP13KXMLGUIClient@ABI_4_0 4:4.6.1
 _ZN6Kasten22ToolListMenuController11qt_metacallEN11QMetaObject4CallEiPPv@ABI_4_0 4:4.6.1
 _ZN6Kasten22ToolListMenuController11qt_metacastEPKc@ABI_4_0 4:4.6.1
 _ZN6Kasten22ToolListMenuController13updateActionsEv@ABI_4_0 4:4.6.1
 _ZN6Kasten22ToolListMenuController14setTargetModelEPNS_13AbstractModelE@ABI_4_0 4:4.6.1
 _ZN6Kasten22ToolListMenuController16staticMetaObjectE@ABI_4_0 4:4.6.1
 _ZN6Kasten22ToolListMenuControllerC1EPNS_2If15WidgetsDockableEP13KXMLGUIClient@ABI_4_0 4:4.6.1
 _ZN6Kasten22ToolListMenuControllerC2EPNS_2If15WidgetsDockableEP13KXMLGUIClient@ABI_4_0 4:4.6.1
 _ZN6Kasten22ViewListMenuController11qt_metacallEN11QMetaObject4CallEiPPv@ABI_4_0 4:4.6.1
 _ZN6Kasten22ViewListMenuController11qt_metacastEPKc@ABI_4_0 4:4.6.1
 _ZN6Kasten22ViewListMenuController13updateActionsEv@ABI_4_0 4:4.6.1
 _ZN6Kasten22ViewListMenuController14setTargetModelEPNS_13AbstractModelE@ABI_4_0 4:4.6.1
 _ZN6Kasten22ViewListMenuController16staticMetaObjectE@ABI_4_0 4:4.6.1
 _ZN6Kasten22ViewListMenuController17onActionTriggeredEP7QAction@ABI_4_0 4:4.6.1
 _ZN6Kasten22ViewListMenuControllerC1EPNS_11ViewManagerEPNS_20AbstractGroupedViewsEP13KXMLGUIClient@ABI_4_0 4:4.6.1
 _ZN6Kasten22ViewListMenuControllerC2EPNS_11ViewManagerEPNS_20AbstractGroupedViewsEP13KXMLGUIClient@ABI_4_0 4:4.6.1
 _ZN6Kasten23ViewAreaSplitController11qt_metacallEN11QMetaObject4CallEiPPv@ABI_4_0 4:4.6.1
 _ZN6Kasten23ViewAreaSplitController11qt_metacastEPKc@ABI_4_0 4:4.6.1
 _ZN6Kasten23ViewAreaSplitController13splitViewAreaEN2Qt11OrientationE@ABI_4_0 4:4.6.1
 _ZN6Kasten23ViewAreaSplitController14onViewsChangedEv@ABI_4_0 4:4.6.1
 _ZN6Kasten23ViewAreaSplitController14setTargetModelEPNS_13AbstractModelE@ABI_4_0 4:4.6.1
 _ZN6Kasten23ViewAreaSplitController15splitVerticallyEv@ABI_4_0 4:4.6.1
 _ZN6Kasten23ViewAreaSplitController16staticMetaObjectE@ABI_4_0 4:4.6.1
 _ZN6Kasten23ViewAreaSplitController17splitHorizontallyEv@ABI_4_0 4:4.6.1
 _ZN6Kasten23ViewAreaSplitController18onViewAreasChangedEv@ABI_4_0 4:4.6.1
 _ZN6Kasten23ViewAreaSplitController22onViewAreaFocusChangedEPNS_16AbstractViewAreaE@ABI_4_0 4:4.6.1
 _ZN6Kasten23ViewAreaSplitController5closeEv@ABI_4_0 4:4.6.1
 _ZN6Kasten23ViewAreaSplitControllerC1EPNS_11ViewManagerEPNS_20AbstractGroupedViewsEP13KXMLGUIClient@ABI_4_0 4:4.6.1
 _ZN6Kasten23ViewAreaSplitControllerC2EPNS_11ViewManagerEPNS_20AbstractGroupedViewsEP13KXMLGUIClient@ABI_4_0 4:4.6.1
 _ZN6Kasten25FileSystemBrowserToolViewC1EPNS_21FileSystemBrowserToolE@ABI_4_0 4:4.6.1
 _ZN6Kasten25FileSystemBrowserToolViewC2EPNS_21FileSystemBrowserToolE@ABI_4_0 4:4.6.1
 _ZN6Kasten25FileSystemBrowserToolViewD0Ev@ABI_4_0 4:4.6.1
 _ZN6Kasten25FileSystemBrowserToolViewD1Ev@ABI_4_0 4:4.6.1
 _ZN6Kasten25FileSystemBrowserToolViewD2Ev@ABI_4_0 4:4.6.1
 _ZNK6Kasten12TerminalTool10currentUrlEv@ABI_4_0 4:4.6.1
 _ZNK6Kasten12TerminalTool10metaObjectEv@ABI_4_0 4:4.6.1
 _ZNK6Kasten12TerminalTool5titleEv@ABI_4_0 4:4.6.1
 (optional=templinst)_ZNK6Kasten13AbstractModel26findBaseModelWithInterfaceIPNS_2If11VersionableEEEPS0_v@ABI_4_0 4:4.6.1
 _ZNK6Kasten13DocumentsTool10metaObjectEv@ABI_4_0 4:4.6.1
 _ZNK6Kasten13DocumentsTool5titleEv@ABI_4_0 4:4.6.1
 _ZNK6Kasten13DocumentsTool9documentsEv@ABI_4_0 4:4.6.1
 _ZNK6Kasten14QuitController10metaObjectEv@ABI_4_0 4:4.6.1
 _ZNK6Kasten14ZoomController10metaObjectEv@ABI_4_0 4:4.6.1
 _ZNK6Kasten15CloseController10metaObjectEv@ABI_4_0 4:4.6.1
 _ZNK6Kasten15VersionViewTool10metaObjectEv@ABI_4_0 4:4.6.1
 _ZNK6Kasten15VersionViewTool5titleEv@ABI_4_0 4:4.6.1
 _ZNK6Kasten16CopyAsController10metaObjectEv@ABI_4_0 4:4.6.1
 _ZNK6Kasten16ExportController10metaObjectEv@ABI_4_0 4:4.6.1
 _ZNK6Kasten16InsertController10metaObjectEv@ABI_4_0 4:4.6.1
 _ZNK6Kasten16LoaderController10metaObjectEv@ABI_4_0 4:4.6.1
 _ZNK6Kasten16SelectController10metaObjectEv@ABI_4_0 4:4.6.1
 _ZNK6Kasten16TerminalToolView4toolEv@ABI_4_0 4:4.6.1
 _ZNK6Kasten16TerminalToolView5titleEv@ABI_4_0 4:4.6.1
 _ZNK6Kasten16TerminalToolView6widgetEv@ABI_4_0 4:4.6.1
 _ZNK6Kasten17CreatorController10metaObjectEv@ABI_4_0 4:4.6.1
 _ZNK6Kasten17DocumentsToolView4toolEv@ABI_4_0 4:4.6.1
 _ZNK6Kasten17DocumentsToolView5titleEv@ABI_4_0 4:4.6.1
 _ZNK6Kasten17DocumentsToolView6widgetEv@ABI_4_0 4:4.6.1
 _ZNK6Kasten17VersionController10metaObjectEv@ABI_4_0 4:4.6.1
 _ZNK6Kasten17ZoomBarController10metaObjectEv@ABI_4_0 4:4.6.1
 _ZNK6Kasten18ReadOnlyController10metaObjectEv@ABI_4_0 4:4.6.1
 _ZNK6Kasten19ClipboardController10metaObjectEv@ABI_4_0 4:4.6.1
 _ZNK6Kasten19SetRemoteController10metaObjectEv@ABI_4_0 4:4.6.1
 _ZNK6Kasten19VersionViewToolView4toolEv@ABI_4_0 4:4.6.1
 _ZNK6Kasten19VersionViewToolView5titleEv@ABI_4_0 4:4.6.1
 _ZNK6Kasten19VersionViewToolView6widgetEv@ABI_4_0 4:4.6.1
 _ZNK6Kasten20FullScreenController10metaObjectEv@ABI_4_0 4:4.6.1
 _ZNK6Kasten20SwitchViewController10metaObjectEv@ABI_4_0 4:4.6.1
 _ZNK6Kasten21FileSystemBrowserTool10currentUrlEv@ABI_4_0 4:4.6.1
 _ZNK6Kasten21FileSystemBrowserTool10metaObjectEv@ABI_4_0 4:4.6.1
 _ZNK6Kasten21FileSystemBrowserTool13hasCurrentUrlEv@ABI_4_0 4:4.6.1
 _ZNK6Kasten21FileSystemBrowserTool5titleEv@ABI_4_0 4:4.6.1
 _ZNK6Kasten21ModifiedBarController10metaObjectEv@ABI_4_0 4:4.6.1
 _ZNK6Kasten21ReadOnlyBarController10metaObjectEv@ABI_4_0 4:4.6.1
 _ZNK6Kasten21SynchronizeController10metaObjectEv@ABI_4_0 4:4.6.1
 _ZNK6Kasten22ToolListMenuController10metaObjectEv@ABI_4_0 4:4.6.1
 _ZNK6Kasten22ViewListMenuController10metaObjectEv@ABI_4_0 4:4.6.1
 _ZNK6Kasten23ViewAreaSplitController10metaObjectEv@ABI_4_0 4:4.6.1
 _ZNK6Kasten25FileSystemBrowserToolView4toolEv@ABI_4_0 4:4.6.1
 _ZNK6Kasten25FileSystemBrowserToolView5titleEv@ABI_4_0 4:4.6.1
 _ZNK6Kasten25FileSystemBrowserToolView6widgetEv@ABI_4_0 4:4.6.1
 _ZTIN6Kasten12TerminalToolE@ABI_4_0 4:4.6.1
 _ZTIN6Kasten13DocumentsToolE@ABI_4_0 4:4.6.1
 _ZTIN6Kasten14QuitControllerE@ABI_4_0 4:4.6.1
 _ZTIN6Kasten14ZoomControllerE@ABI_4_0 4:4.6.1
 _ZTIN6Kasten15CloseControllerE@ABI_4_0 4:4.6.1
 _ZTIN6Kasten15VersionViewToolE@ABI_4_0 4:4.6.1
 _ZTIN6Kasten16CopyAsControllerE@ABI_4_0 4:4.6.1
 _ZTIN6Kasten16ExportControllerE@ABI_4_0 4:4.6.1
 _ZTIN6Kasten16InsertControllerE@ABI_4_0 4:4.6.1
 _ZTIN6Kasten16LoaderControllerE@ABI_4_0 4:4.6.1
 _ZTIN6Kasten16SelectControllerE@ABI_4_0 4:4.6.1
 _ZTIN6Kasten16TerminalToolViewE@ABI_4_0 4:4.6.1
 _ZTIN6Kasten17CreatorControllerE@ABI_4_0 4:4.6.1
 _ZTIN6Kasten17DocumentsToolViewE@ABI_4_0 4:4.6.1
 _ZTIN6Kasten17VersionControllerE@ABI_4_0 4:4.6.1
 _ZTIN6Kasten17ZoomBarControllerE@ABI_4_0 4:4.6.1
 _ZTIN6Kasten18ReadOnlyControllerE@ABI_4_0 4:4.6.1
 _ZTIN6Kasten19ClipboardControllerE@ABI_4_0 4:4.6.1
 _ZTIN6Kasten19SetRemoteControllerE@ABI_4_0 4:4.6.1
 _ZTIN6Kasten19VersionViewToolViewE@ABI_4_0 4:4.6.1
 _ZTIN6Kasten20FullScreenControllerE@ABI_4_0 4:4.6.1
 _ZTIN6Kasten20SwitchViewControllerE@ABI_4_0 4:4.6.1
 _ZTIN6Kasten21FileSystemBrowserToolE@ABI_4_0 4:4.6.1
 _ZTIN6Kasten21ModifiedBarControllerE@ABI_4_0 4:4.6.1
 _ZTIN6Kasten21ReadOnlyBarControllerE@ABI_4_0 4:4.6.1
 _ZTIN6Kasten21SynchronizeControllerE@ABI_4_0 4:4.6.1
 _ZTIN6Kasten22ToolListMenuControllerE@ABI_4_0 4:4.6.1
 _ZTIN6Kasten22ViewListMenuControllerE@ABI_4_0 4:4.6.1
 _ZTIN6Kasten23ViewAreaSplitControllerE@ABI_4_0 4:4.6.1
 _ZTIN6Kasten25FileSystemBrowserToolViewE@ABI_4_0 4:4.6.1
 _ZTSN6Kasten12TerminalToolE@ABI_4_0 4:4.6.1
 _ZTSN6Kasten13DocumentsToolE@ABI_4_0 4:4.6.1
 _ZTSN6Kasten14QuitControllerE@ABI_4_0 4:4.6.1
 _ZTSN6Kasten14ZoomControllerE@ABI_4_0 4:4.6.1
 _ZTSN6Kasten15CloseControllerE@ABI_4_0 4:4.6.1
 _ZTSN6Kasten15VersionViewToolE@ABI_4_0 4:4.6.1
 _ZTSN6Kasten16CopyAsControllerE@ABI_4_0 4:4.6.1
 _ZTSN6Kasten16ExportControllerE@ABI_4_0 4:4.6.1
 _ZTSN6Kasten16InsertControllerE@ABI_4_0 4:4.6.1
 _ZTSN6Kasten16LoaderControllerE@ABI_4_0 4:4.6.1
 _ZTSN6Kasten16SelectControllerE@ABI_4_0 4:4.6.1
 _ZTSN6Kasten16TerminalToolViewE@ABI_4_0 4:4.6.1
 _ZTSN6Kasten17CreatorControllerE@ABI_4_0 4:4.6.1
 _ZTSN6Kasten17DocumentsToolViewE@ABI_4_0 4:4.6.1
 _ZTSN6Kasten17VersionControllerE@ABI_4_0 4:4.6.1
 _ZTSN6Kasten17ZoomBarControllerE@ABI_4_0 4:4.6.1
 _ZTSN6Kasten18ReadOnlyControllerE@ABI_4_0 4:4.6.1
 _ZTSN6Kasten19ClipboardControllerE@ABI_4_0 4:4.6.1
 _ZTSN6Kasten19SetRemoteControllerE@ABI_4_0 4:4.6.1
 _ZTSN6Kasten19VersionViewToolViewE@ABI_4_0 4:4.6.1
 _ZTSN6Kasten20FullScreenControllerE@ABI_4_0 4:4.6.1
 _ZTSN6Kasten20SwitchViewControllerE@ABI_4_0 4:4.6.1
 _ZTSN6Kasten21FileSystemBrowserToolE@ABI_4_0 4:4.6.1
 _ZTSN6Kasten21ModifiedBarControllerE@ABI_4_0 4:4.6.1
 _ZTSN6Kasten21ReadOnlyBarControllerE@ABI_4_0 4:4.6.1
 _ZTSN6Kasten21SynchronizeControllerE@ABI_4_0 4:4.6.1
 _ZTSN6Kasten22ToolListMenuControllerE@ABI_4_0 4:4.6.1
 _ZTSN6Kasten22ViewListMenuControllerE@ABI_4_0 4:4.6.1
 _ZTSN6Kasten23ViewAreaSplitControllerE@ABI_4_0 4:4.6.1
 _ZTSN6Kasten25FileSystemBrowserToolViewE@ABI_4_0 4:4.6.1
 _ZTVN6Kasten12TerminalToolE@ABI_4_0 4:4.6.1
 _ZTVN6Kasten13DocumentsToolE@ABI_4_0 4:4.6.1
 _ZTVN6Kasten14QuitControllerE@ABI_4_0 4:4.6.1
 _ZTVN6Kasten14ZoomControllerE@ABI_4_0 4:4.6.1
 _ZTVN6Kasten15CloseControllerE@ABI_4_0 4:4.6.1
 _ZTVN6Kasten15VersionViewToolE@ABI_4_0 4:4.6.1
 _ZTVN6Kasten16CopyAsControllerE@ABI_4_0 4:4.6.1
 _ZTVN6Kasten16ExportControllerE@ABI_4_0 4:4.6.1
 _ZTVN6Kasten16InsertControllerE@ABI_4_0 4:4.6.1
 _ZTVN6Kasten16LoaderControllerE@ABI_4_0 4:4.6.1
 _ZTVN6Kasten16SelectControllerE@ABI_4_0 4:4.6.1
 _ZTVN6Kasten16TerminalToolViewE@ABI_4_0 4:4.6.1
 _ZTVN6Kasten17CreatorControllerE@ABI_4_0 4:4.6.1
 _ZTVN6Kasten17DocumentsToolViewE@ABI_4_0 4:4.6.1
 _ZTVN6Kasten17VersionControllerE@ABI_4_0 4:4.6.1
 _ZTVN6Kasten17ZoomBarControllerE@ABI_4_0 4:4.6.1
 _ZTVN6Kasten18ReadOnlyControllerE@ABI_4_0 4:4.6.1
 _ZTVN6Kasten19ClipboardControllerE@ABI_4_0 4:4.6.1
 _ZTVN6Kasten19SetRemoteControllerE@ABI_4_0 4:4.6.1
 _ZTVN6Kasten19VersionViewToolViewE@ABI_4_0 4:4.6.1
 _ZTVN6Kasten20FullScreenControllerE@ABI_4_0 4:4.6.1
 _ZTVN6Kasten20SwitchViewControllerE@ABI_4_0 4:4.6.1
 _ZTVN6Kasten21FileSystemBrowserToolE@ABI_4_0 4:4.6.1
 _ZTVN6Kasten21ModifiedBarControllerE@ABI_4_0 4:4.6.1
 _ZTVN6Kasten21ReadOnlyBarControllerE@ABI_4_0 4:4.6.1
 _ZTVN6Kasten21SynchronizeControllerE@ABI_4_0 4:4.6.1
 _ZTVN6Kasten22ToolListMenuControllerE@ABI_4_0 4:4.6.1
 _ZTVN6Kasten22ViewListMenuControllerE@ABI_4_0 4:4.6.1
 _ZTVN6Kasten23ViewAreaSplitControllerE@ABI_4_0 4:4.6.1
 _ZTVN6Kasten25FileSystemBrowserToolViewE@ABI_4_0 4:4.6.1
