# SymbolsHelper-Confirmed: 4:4.10.2 amd64
libkasten2core.so.2 libkasten2core2 #MINVER#
 ABI_2_0@ABI_2_0 4:4.10.2
 _ZN7Kasten210JobManager10executeJobEP4KJob@ABI_2_0 4:4.10.2
 _ZN7Kasten212AbstractTool11qt_metacallEN11QMetaObject4CallEiPPv@ABI_2_0 4:4.10.2
 _ZN7Kasten212AbstractTool11qt_metacastEPKc@ABI_2_0 4:4.10.2
 _ZN7Kasten212AbstractTool12titleChangedERK7QString@ABI_2_0 4:4.10.2
 _ZN7Kasten212AbstractTool16staticMetaObjectE@ABI_2_0 4:4.10.2
 _ZN7Kasten212AbstractTool7PrivateC1EPS0_@ABI_2_0 4:4.10.2
 _ZN7Kasten212AbstractTool7PrivateC2EPS0_@ABI_2_0 4:4.10.2
 _ZN7Kasten212AbstractToolC1Ev@ABI_2_0 4:4.10.2
 _ZN7Kasten212AbstractToolC2Ev@ABI_2_0 4:4.10.2
 _ZN7Kasten212AbstractToolD0Ev@ABI_2_0 4:4.10.2
 _ZN7Kasten212AbstractToolD1Ev@ABI_2_0 4:4.10.2
 _ZN7Kasten212AbstractToolD2Ev@ABI_2_0 4:4.10.2
 _ZN7Kasten213AbstractModel11qt_metacallEN11QMetaObject4CallEiPPv@ABI_2_0 4:4.10.2
 _ZN7Kasten213AbstractModel11qt_metacastEPKc@ABI_2_0 4:4.10.2
 _ZN7Kasten213AbstractModel11setReadOnlyEb@ABI_2_0 4:4.10.2
 _ZN7Kasten213AbstractModel12setBaseModelEPS0_@ABI_2_0 4:4.10.2
 _ZN7Kasten213AbstractModel12titleChangedERK7QString@ABI_2_0 4:4.10.2
 _ZN7Kasten213AbstractModel15readOnlyChangedEb@ABI_2_0 4:4.10.2
 _ZN7Kasten213AbstractModel16staticMetaObjectE@ABI_2_0 4:4.10.2
 _ZN7Kasten213AbstractModel17modifiableChangedEb@ABI_2_0 4:4.10.2
 _ZN7Kasten213AbstractModelC1EPNS_20AbstractModelPrivateE@ABI_2_0 4:4.10.2
 _ZN7Kasten213AbstractModelC1EPS0_@ABI_2_0 4:4.10.2
 _ZN7Kasten213AbstractModelC2EPNS_20AbstractModelPrivateE@ABI_2_0 4:4.10.2
 _ZN7Kasten213AbstractModelC2EPS0_@ABI_2_0 4:4.10.2
 _ZN7Kasten213AbstractModelD0Ev@ABI_2_0 4:4.10.2
 _ZN7Kasten213AbstractModelD1Ev@ABI_2_0 4:4.10.2
 _ZN7Kasten213AbstractModelD2Ev@ABI_2_0 4:4.10.2
 _ZN7Kasten215AbstractLoadJob11qt_metacallEN11QMetaObject4CallEiPPv@ABI_2_0 4:4.10.2
 _ZN7Kasten215AbstractLoadJob11qt_metacastEPKc@ABI_2_0 4:4.10.2
 _ZN7Kasten215AbstractLoadJob11setDocumentEPNS_16AbstractDocumentE@ABI_2_0 4:4.10.2
 _ZN7Kasten215AbstractLoadJob14documentLoadedEPNS_16AbstractDocumentE@ABI_2_0 4:4.10.2
 _ZN7Kasten215AbstractLoadJob16staticMetaObjectE@ABI_2_0 4:4.10.2
 _ZN7Kasten215AbstractLoadJobC1EPNS_22AbstractLoadJobPrivateE@ABI_2_0 4:4.10.2
 _ZN7Kasten215AbstractLoadJobC1Ev@ABI_2_0 4:4.10.2
 _ZN7Kasten215AbstractLoadJobC2EPNS_22AbstractLoadJobPrivateE@ABI_2_0 4:4.10.2
 _ZN7Kasten215AbstractLoadJobC2Ev@ABI_2_0 4:4.10.2
 _ZN7Kasten215AbstractLoadJobD0Ev@ABI_2_0 4:4.10.2
 _ZN7Kasten215AbstractLoadJobD1Ev@ABI_2_0 4:4.10.2
 _ZN7Kasten215AbstractLoadJobD2Ev@ABI_2_0 4:4.10.2
 _ZN7Kasten215DocumentManager11addDocumentEPNS_16AbstractDocumentE@ABI_2_0 4:4.10.2
 _ZN7Kasten215DocumentManager11canCloseAllEv@ABI_2_0 4:4.10.2
 _ZN7Kasten215DocumentManager11qt_metacallEN11QMetaObject4CallEiPPv@ABI_2_0 4:4.10.2
 _ZN7Kasten215DocumentManager11qt_metacastEPKc@ABI_2_0 4:4.10.2
 _ZN7Kasten215DocumentManager12requestFocusEPNS_16AbstractDocumentE@ABI_2_0 4:4.10.2
 _ZN7Kasten215DocumentManager13closeAllOtherEPNS_16AbstractDocumentE@ABI_2_0 4:4.10.2
 _ZN7Kasten215DocumentManager13closeDocumentEPNS_16AbstractDocumentE@ABI_2_0 4:4.10.2
 _ZN7Kasten215DocumentManager14closeDocumentsERK5QListIPNS_16AbstractDocumentEE@ABI_2_0 4:4.10.2
 _ZN7Kasten215DocumentManager14focusRequestedEPNS_16AbstractDocumentE@ABI_2_0 4:4.10.2
 _ZN7Kasten215DocumentManager16canCloseAllOtherEPNS_16AbstractDocumentE@ABI_2_0 4:4.10.2
 _ZN7Kasten215DocumentManager16staticMetaObjectE@ABI_2_0 4:4.10.2
 _ZN7Kasten215DocumentManager5addedERK5QListIPNS_16AbstractDocumentEE@ABI_2_0 4:4.10.2
 _ZN7Kasten215DocumentManager7closingERK5QListIPNS_16AbstractDocumentEE@ABI_2_0 4:4.10.2
 _ZN7Kasten215DocumentManager8canCloseEPNS_16AbstractDocumentE@ABI_2_0 4:4.10.2
 _ZN7Kasten215DocumentManager8canCloseERK5QListIPNS_16AbstractDocumentEE@ABI_2_0 4:4.10.2
 _ZN7Kasten215DocumentManager8closeAllEv@ABI_2_0 4:4.10.2
 _ZN7Kasten215DocumentManagerC1Ev@ABI_2_0 4:4.10.2
 _ZN7Kasten215DocumentManagerC2Ev@ABI_2_0 4:4.10.2
 _ZN7Kasten215DocumentManagerD0Ev@ABI_2_0 4:4.10.2
 _ZN7Kasten215DocumentManagerD1Ev@ABI_2_0 4:4.10.2
 _ZN7Kasten215DocumentManagerD2Ev@ABI_2_0 4:4.10.2
 _ZN7Kasten216AbstractDocument11qt_metacallEN11QMetaObject4CallEiPPv@ABI_2_0 4:4.10.2
 _ZN7Kasten216AbstractDocument11qt_metacastEPKc@ABI_2_0 4:4.10.2
 _ZN7Kasten216AbstractDocument15setSynchronizerEPNS_25AbstractModelSynchronizerE@ABI_2_0 4:4.10.2
 _ZN7Kasten216AbstractDocument16staticMetaObjectE@ABI_2_0 4:4.10.2
 _ZN7Kasten216AbstractDocument19contentFlagsChangedE6QFlagsINS_11ContentFlagEE@ABI_2_0 4:4.10.2
 _ZN7Kasten216AbstractDocument19synchronizerChangedEPNS_25AbstractModelSynchronizerE@ABI_2_0 4:4.10.2
 _ZN7Kasten216AbstractDocument5setIdERK7QString@ABI_2_0 4:4.10.2
 _ZN7Kasten216AbstractDocumentC1Ev@ABI_2_0 4:4.10.2
 _ZN7Kasten216AbstractDocumentC2Ev@ABI_2_0 4:4.10.2
 _ZN7Kasten216AbstractDocumentD0Ev@ABI_2_0 4:4.10.2
 _ZN7Kasten216AbstractDocumentD1Ev@ABI_2_0 4:4.10.2
 _ZN7Kasten216AbstractDocumentD2Ev@ABI_2_0 4:4.10.2
 _ZN7Kasten217AbstractExportJob11qt_metacallEN11QMetaObject4CallEiPPv@ABI_2_0 4:4.10.2
 _ZN7Kasten217AbstractExportJob11qt_metacastEPKc@ABI_2_0 4:4.10.2
 _ZN7Kasten217AbstractExportJob11setDocumentEPNS_16AbstractDocumentE@ABI_2_0 4:4.10.2
 _ZN7Kasten217AbstractExportJob14documentLoadedEPNS_16AbstractDocumentE@ABI_2_0 4:4.10.2
 _ZN7Kasten217AbstractExportJob16staticMetaObjectE@ABI_2_0 4:4.10.2
 _ZN7Kasten217AbstractExportJobC1EPNS_24AbstractExportJobPrivateE@ABI_2_0 4:4.10.2
 _ZN7Kasten217AbstractExportJobC1Ev@ABI_2_0 4:4.10.2
 _ZN7Kasten217AbstractExportJobC2EPNS_24AbstractExportJobPrivateE@ABI_2_0 4:4.10.2
 _ZN7Kasten217AbstractExportJobC2Ev@ABI_2_0 4:4.10.2
 _ZN7Kasten217AbstractExportJobD0Ev@ABI_2_0 4:4.10.2
 _ZN7Kasten217AbstractExportJobD1Ev@ABI_2_0 4:4.10.2
 _ZN7Kasten217AbstractExportJobD2Ev@ABI_2_0 4:4.10.2
 _ZN7Kasten217ModelCodecManager11qt_metacallEN11QMetaObject4CallEiPPv@ABI_2_0 4:4.10.2
 _ZN7Kasten217ModelCodecManager11qt_metacastEPKc@ABI_2_0 4:4.10.2
 _ZN7Kasten217ModelCodecManager11setDecodersERK5QListIPNS_26AbstractModelStreamDecoderEE@ABI_2_0 4:4.10.2
 _ZN7Kasten217ModelCodecManager11setEncodersERK5QListIPNS_26AbstractModelStreamEncoderEE@ABI_2_0 4:4.10.2
 _ZN7Kasten217ModelCodecManager13setGeneratorsERK5QListIPNS_26AbstractModelDataGeneratorEE@ABI_2_0 4:4.10.2
 _ZN7Kasten217ModelCodecManager14encodeToStreamEPNS_26AbstractModelStreamEncoderEPNS_13AbstractModelEPKNS_22AbstractModelSelectionE@ABI_2_0 4:4.10.2
 _ZN7Kasten217ModelCodecManager14exportDocumentEPNS_21AbstractModelExporterEPNS_13AbstractModelEPKNS_22AbstractModelSelectionE@ABI_2_0 4:4.10.2
 _ZN7Kasten217ModelCodecManager16staticMetaObjectE@ABI_2_0 4:4.10.2
 _ZN7Kasten217ModelCodecManager18setOverwriteDialogEPNS_23AbstractOverwriteDialogE@ABI_2_0 4:4.10.2
 _ZN7Kasten217ModelCodecManagerC1EPNS_15DocumentManagerE@ABI_2_0 4:4.10.2
 _ZN7Kasten217ModelCodecManagerC2EPNS_15DocumentManagerE@ABI_2_0 4:4.10.2
 _ZN7Kasten217ModelCodecManagerD0Ev@ABI_2_0 4:4.10.2
 _ZN7Kasten217ModelCodecManagerD1Ev@ABI_2_0 4:4.10.2
 _ZN7Kasten217ModelCodecManagerD2Ev@ABI_2_0 4:4.10.2
 _ZN7Kasten218AbstractConnectJob11qt_metacallEN11QMetaObject4CallEiPPv@ABI_2_0 4:4.10.2
 _ZN7Kasten218AbstractConnectJob11qt_metacastEPKc@ABI_2_0 4:4.10.2
 _ZN7Kasten218AbstractConnectJob16staticMetaObjectE@ABI_2_0 4:4.10.2
 _ZN7Kasten218AbstractConnectJobC1EPNS_25AbstractConnectJobPrivateE@ABI_2_0 4:4.10.2
 _ZN7Kasten218AbstractConnectJobC1Ev@ABI_2_0 4:4.10.2
 _ZN7Kasten218AbstractConnectJobC2EPNS_25AbstractConnectJobPrivateE@ABI_2_0 4:4.10.2
 _ZN7Kasten218AbstractConnectJobC2Ev@ABI_2_0 4:4.10.2
 _ZN7Kasten218AbstractConnectJobD0Ev@ABI_2_0 4:4.10.2
 _ZN7Kasten218AbstractConnectJobD1Ev@ABI_2_0 4:4.10.2
 _ZN7Kasten218AbstractConnectJobD2Ev@ABI_2_0 4:4.10.2
 _ZN7Kasten219DocumentSyncManager11qt_metacallEN11QMetaObject4CallEiPPv@ABI_2_0 4:4.10.2
 _ZN7Kasten219DocumentSyncManager11qt_metacastEPKc@ABI_2_0 4:4.10.2
 _ZN7Kasten219DocumentSyncManager15setSynchronizerEPNS_16AbstractDocumentE@ABI_2_0 4:4.10.2
 _ZN7Kasten219DocumentSyncManager16onDocumentLoadedEPNS_16AbstractDocumentE@ABI_2_0 4:4.10.2
 _ZN7Kasten219DocumentSyncManager16onDocumentsAddedERK5QListIPNS_16AbstractDocumentEE@ABI_2_0 4:4.10.2
 _ZN7Kasten219DocumentSyncManager16staticMetaObjectE@ABI_2_0 4:4.10.2
 _ZN7Kasten219DocumentSyncManager18onDocumentsClosingERK5QListIPNS_16AbstractDocumentEE@ABI_2_0 4:4.10.2
 _ZN7Kasten219DocumentSyncManager18setOverwriteDialogEPNS_23AbstractOverwriteDialogE@ABI_2_0 4:4.10.2
 _ZN7Kasten219DocumentSyncManager20setSaveDiscardDialogEPNS_25AbstractSaveDiscardDialogE@ABI_2_0 4:4.10.2
 _ZN7Kasten219DocumentSyncManager30setDocumentSynchronizerFactoryEPNS_32AbstractModelSynchronizerFactoryE@ABI_2_0 4:4.10.2
 _ZN7Kasten219DocumentSyncManager4loadERK4KUrl@ABI_2_0 4:4.10.2
 _ZN7Kasten219DocumentSyncManager4saveEPNS_16AbstractDocumentE@ABI_2_0 4:4.10.2
 _ZN7Kasten219DocumentSyncManager6reloadEPNS_16AbstractDocumentE@ABI_2_0 4:4.10.2
 _ZN7Kasten219DocumentSyncManager7urlUsedERK4KUrl@ABI_2_0 4:4.10.2
 _ZN7Kasten219DocumentSyncManager8canCloseEPNS_16AbstractDocumentE@ABI_2_0 4:4.10.2
 _ZN7Kasten219DocumentSyncManagerC1EPNS_15DocumentManagerE@ABI_2_0 4:4.10.2
 _ZN7Kasten219DocumentSyncManagerC2EPNS_15DocumentManagerE@ABI_2_0 4:4.10.2
 _ZN7Kasten219DocumentSyncManagerD0Ev@ABI_2_0 4:4.10.2
 _ZN7Kasten219DocumentSyncManagerD1Ev@ABI_2_0 4:4.10.2
 _ZN7Kasten219DocumentSyncManagerD2Ev@ABI_2_0 4:4.10.2
 _ZN7Kasten219DocumentVersionDataC1EiRK7QString@ABI_2_0 4:4.10.2
 _ZN7Kasten219DocumentVersionDataC2EiRK7QString@ABI_2_0 4:4.10.2
 _ZN7Kasten221AbstractModelExporter11qt_metacallEN11QMetaObject4CallEiPPv@ABI_2_0 4:4.10.2
 _ZN7Kasten221AbstractModelExporter11qt_metacastEPKc@ABI_2_0 4:4.10.2
 _ZN7Kasten221AbstractModelExporter16staticMetaObjectE@ABI_2_0 4:4.10.2
 _ZN7Kasten221AbstractModelExporterC1EPNS_28AbstractModelExporterPrivateE@ABI_2_0 4:4.10.2
 _ZN7Kasten221AbstractModelExporterC1ERK7QStringS3_@ABI_2_0 4:4.10.2
 _ZN7Kasten221AbstractModelExporterC2EPNS_28AbstractModelExporterPrivateE@ABI_2_0 4:4.10.2
 _ZN7Kasten221AbstractModelExporterC2ERK7QStringS3_@ABI_2_0 4:4.10.2
 _ZN7Kasten221AbstractModelExporterD0Ev@ABI_2_0 4:4.10.2
 _ZN7Kasten221AbstractModelExporterD1Ev@ABI_2_0 4:4.10.2
 _ZN7Kasten221AbstractModelExporterD2Ev@ABI_2_0 4:4.10.2
 _ZN7Kasten221DocumentCreateManager11qt_metacallEN11QMetaObject4CallEiPPv@ABI_2_0 4:4.10.2
 _ZN7Kasten221DocumentCreateManager11qt_metacastEPKc@ABI_2_0 4:4.10.2
 _ZN7Kasten221DocumentCreateManager16staticMetaObjectE@ABI_2_0 4:4.10.2
 _ZN7Kasten221DocumentCreateManager17createNewFromDataEPK9QMimeDatab@ABI_2_0 4:4.10.2
 _ZN7Kasten221DocumentCreateManager18setDocumentFactoryEPNS_23AbstractDocumentFactoryE@ABI_2_0 4:4.10.2
 _ZN7Kasten221DocumentCreateManager9createNewEv@ABI_2_0 4:4.10.2
 _ZN7Kasten221DocumentCreateManagerC1EPNS_15DocumentManagerE@ABI_2_0 4:4.10.2
 _ZN7Kasten221DocumentCreateManagerC2EPNS_15DocumentManagerE@ABI_2_0 4:4.10.2
 _ZN7Kasten221DocumentCreateManagerD0Ev@ABI_2_0 4:4.10.2
 _ZN7Kasten221DocumentCreateManagerD1Ev@ABI_2_0 4:4.10.2
 _ZN7Kasten221DocumentCreateManagerD2Ev@ABI_2_0 4:4.10.2
 _ZN7Kasten222AbstractModelSelectionC1Ev@ABI_2_0 4:4.10.2
 _ZN7Kasten222AbstractModelSelectionC2Ev@ABI_2_0 4:4.10.2
 _ZN7Kasten222AbstractModelSelectionD0Ev@ABI_2_0 4:4.10.2
 _ZN7Kasten222AbstractModelSelectionD1Ev@ABI_2_0 4:4.10.2
 _ZN7Kasten222AbstractModelSelectionD2Ev@ABI_2_0 4:4.10.2
 _ZN7Kasten223AbstractDocumentFactory11qt_metacallEN11QMetaObject4CallEiPPv@ABI_2_0 4:4.10.2
 _ZN7Kasten223AbstractDocumentFactory11qt_metacastEPKc@ABI_2_0 4:4.10.2
 _ZN7Kasten223AbstractDocumentFactory14createFromDataEPK9QMimeDatab@ABI_2_0 4:4.10.2
 _ZN7Kasten223AbstractDocumentFactory16staticMetaObjectE@ABI_2_0 4:4.10.2
 _ZN7Kasten223AbstractDocumentFactory17canCreateFromDataEPK9QMimeData@ABI_2_0 4:4.10.2
 _ZN7Kasten223AbstractDocumentFactoryD0Ev@ABI_2_0 4:4.10.2
 _ZN7Kasten223AbstractDocumentFactoryD1Ev@ABI_2_0 4:4.10.2
 _ZN7Kasten223AbstractDocumentFactoryD2Ev@ABI_2_0 4:4.10.2
 _ZN7Kasten223AbstractOverwriteDialogD0Ev@ABI_2_0 4:4.10.2
 _ZN7Kasten223AbstractOverwriteDialogD1Ev@ABI_2_0 4:4.10.2
 _ZN7Kasten223AbstractOverwriteDialogD2Ev@ABI_2_0 4:4.10.2
 _ZN7Kasten223AbstractSyncToRemoteJob11qt_metacallEN11QMetaObject4CallEiPPv@ABI_2_0 4:4.10.2
 _ZN7Kasten223AbstractSyncToRemoteJob11qt_metacastEPKc@ABI_2_0 4:4.10.2
 _ZN7Kasten223AbstractSyncToRemoteJob16staticMetaObjectE@ABI_2_0 4:4.10.2
 _ZN7Kasten223AbstractSyncToRemoteJobC1EPNS_30AbstractSyncToRemoteJobPrivateE@ABI_2_0 4:4.10.2
 _ZN7Kasten223AbstractSyncToRemoteJobC1Ev@ABI_2_0 4:4.10.2
 _ZN7Kasten223AbstractSyncToRemoteJobC2EPNS_30AbstractSyncToRemoteJobPrivateE@ABI_2_0 4:4.10.2
 _ZN7Kasten223AbstractSyncToRemoteJobC2Ev@ABI_2_0 4:4.10.2
 _ZN7Kasten223AbstractSyncToRemoteJobD0Ev@ABI_2_0 4:4.10.2
 _ZN7Kasten223AbstractSyncToRemoteJobD1Ev@ABI_2_0 4:4.10.2
 _ZN7Kasten223AbstractSyncToRemoteJobD2Ev@ABI_2_0 4:4.10.2
 _ZN7Kasten223ModelDataGenerateThread11qt_metacallEN11QMetaObject4CallEiPPv@ABI_2_0 4:4.10.2
 _ZN7Kasten223ModelDataGenerateThread11qt_metacastEPKc@ABI_2_0 4:4.10.2
 _ZN7Kasten223ModelDataGenerateThread16staticMetaObjectE@ABI_2_0 4:4.10.2
 _ZN7Kasten223ModelDataGenerateThread3runEv@ABI_2_0 4:4.10.2
 _ZN7Kasten223ModelDataGenerateThread9generatedEP9QMimeData@ABI_2_0 4:4.10.2
 _ZN7Kasten223ModelDataGenerateThreadD0Ev@ABI_2_0 4:4.10.2
 _ZN7Kasten223ModelDataGenerateThreadD1Ev@ABI_2_0 4:4.10.2
 _ZN7Kasten223ModelDataGenerateThreadD2Ev@ABI_2_0 4:4.10.2
 _ZN7Kasten223ModelStreamEncodeThread11qt_metacallEN11QMetaObject4CallEiPPv@ABI_2_0 4:4.10.2
 _ZN7Kasten223ModelStreamEncodeThread11qt_metacastEPKc@ABI_2_0 4:4.10.2
 _ZN7Kasten223ModelStreamEncodeThread13modelExportedEb@ABI_2_0 4:4.10.2
 _ZN7Kasten223ModelStreamEncodeThread16staticMetaObjectE@ABI_2_0 4:4.10.2
 _ZN7Kasten223ModelStreamEncodeThread3runEv@ABI_2_0 4:4.10.2
 _ZN7Kasten223ModelStreamEncodeThreadD0Ev@ABI_2_0 4:4.10.2
 _ZN7Kasten223ModelStreamEncodeThreadD1Ev@ABI_2_0 4:4.10.2
 _ZN7Kasten223ModelStreamEncodeThreadD2Ev@ABI_2_0 4:4.10.2
 _ZN7Kasten225AbstractFileSystemLoadJob11qt_metacallEN11QMetaObject4CallEiPPv@ABI_2_0 4:4.10.2
 _ZN7Kasten225AbstractFileSystemLoadJob11qt_metacastEPKc@ABI_2_0 4:4.10.2
 _ZN7Kasten225AbstractFileSystemLoadJob11setDocumentEPNS_16AbstractDocumentE@ABI_2_0 4:4.10.2
 _ZN7Kasten225AbstractFileSystemLoadJob16staticMetaObjectE@ABI_2_0 4:4.10.2
 _ZN7Kasten225AbstractFileSystemLoadJob5startEv@ABI_2_0 4:4.10.2
 _ZN7Kasten225AbstractFileSystemLoadJobC1EPNS_35AbstractModelFileSystemSynchronizerERK4KUrl@ABI_2_0 4:4.10.2
 _ZN7Kasten225AbstractFileSystemLoadJobC2EPNS_35AbstractModelFileSystemSynchronizerERK4KUrl@ABI_2_0 4:4.10.2
 _ZN7Kasten225AbstractFileSystemLoadJobD0Ev@ABI_2_0 4:4.10.2
 _ZN7Kasten225AbstractFileSystemLoadJobD1Ev@ABI_2_0 4:4.10.2
 _ZN7Kasten225AbstractFileSystemLoadJobD2Ev@ABI_2_0 4:4.10.2
 _ZN7Kasten225AbstractModelSynchronizer10urlChangedERK4KUrl@ABI_2_0 4:4.10.2
 _ZN7Kasten225AbstractModelSynchronizer11qt_metacallEN11QMetaObject4CallEiPPv@ABI_2_0 4:4.10.2
 _ZN7Kasten225AbstractModelSynchronizer11qt_metacastEPKc@ABI_2_0 4:4.10.2
 _ZN7Kasten225AbstractModelSynchronizer16staticMetaObjectE@ABI_2_0 4:4.10.2
 _ZN7Kasten225AbstractModelSynchronizer21localSyncStateChangedENS_14LocalSyncStateE@ABI_2_0 4:4.10.2
 _ZN7Kasten225AbstractModelSynchronizer22remoteSyncStateChangedENS_15RemoteSyncStateE@ABI_2_0 4:4.10.2
 _ZN7Kasten225AbstractModelSynchronizer6setUrlERK4KUrl@ABI_2_0 4:4.10.2
 _ZN7Kasten225AbstractModelSynchronizerC1EPNS_32AbstractModelSynchronizerPrivateE@ABI_2_0 4:4.10.2
 _ZN7Kasten225AbstractModelSynchronizerC1Ev@ABI_2_0 4:4.10.2
 _ZN7Kasten225AbstractModelSynchronizerC2EPNS_32AbstractModelSynchronizerPrivateE@ABI_2_0 4:4.10.2
 _ZN7Kasten225AbstractModelSynchronizerC2Ev@ABI_2_0 4:4.10.2
 _ZN7Kasten225AbstractModelSynchronizerD0Ev@ABI_2_0 4:4.10.2
 _ZN7Kasten225AbstractModelSynchronizerD1Ev@ABI_2_0 4:4.10.2
 _ZN7Kasten225AbstractModelSynchronizerD2Ev@ABI_2_0 4:4.10.2
 _ZN7Kasten225AbstractSaveDiscardDialogD0Ev@ABI_2_0 4:4.10.2
 _ZN7Kasten225AbstractSaveDiscardDialogD1Ev@ABI_2_0 4:4.10.2
 _ZN7Kasten225AbstractSaveDiscardDialogD2Ev@ABI_2_0 4:4.10.2
 _ZN7Kasten225AbstractSyncFromRemoteJob11qt_metacallEN11QMetaObject4CallEiPPv@ABI_2_0 4:4.10.2
 _ZN7Kasten225AbstractSyncFromRemoteJob11qt_metacastEPKc@ABI_2_0 4:4.10.2
 _ZN7Kasten225AbstractSyncFromRemoteJob16staticMetaObjectE@ABI_2_0 4:4.10.2
 _ZN7Kasten225AbstractSyncFromRemoteJobC1EPNS_32AbstractSyncFromRemoteJobPrivateE@ABI_2_0 4:4.10.2
 _ZN7Kasten225AbstractSyncFromRemoteJobC1Ev@ABI_2_0 4:4.10.2
 _ZN7Kasten225AbstractSyncFromRemoteJobC2EPNS_32AbstractSyncFromRemoteJobPrivateE@ABI_2_0 4:4.10.2
 _ZN7Kasten225AbstractSyncFromRemoteJobC2Ev@ABI_2_0 4:4.10.2
 _ZN7Kasten225AbstractSyncFromRemoteJobD0Ev@ABI_2_0 4:4.10.2
 _ZN7Kasten225AbstractSyncFromRemoteJobD1Ev@ABI_2_0 4:4.10.2
 _ZN7Kasten225AbstractSyncFromRemoteJobD2Ev@ABI_2_0 4:4.10.2
 _ZN7Kasten225AbstractSyncWithRemoteJob11qt_metacallEN11QMetaObject4CallEiPPv@ABI_2_0 4:4.10.2
 _ZN7Kasten225AbstractSyncWithRemoteJob11qt_metacastEPKc@ABI_2_0 4:4.10.2
 _ZN7Kasten225AbstractSyncWithRemoteJob16staticMetaObjectE@ABI_2_0 4:4.10.2
 _ZN7Kasten225AbstractSyncWithRemoteJobC1EPNS_32AbstractSyncWithRemoteJobPrivateE@ABI_2_0 4:4.10.2
 _ZN7Kasten225AbstractSyncWithRemoteJobC1Ev@ABI_2_0 4:4.10.2
 _ZN7Kasten225AbstractSyncWithRemoteJobC2EPNS_32AbstractSyncWithRemoteJobPrivateE@ABI_2_0 4:4.10.2
 _ZN7Kasten225AbstractSyncWithRemoteJobC2Ev@ABI_2_0 4:4.10.2
 _ZN7Kasten225AbstractSyncWithRemoteJobD0Ev@ABI_2_0 4:4.10.2
 _ZN7Kasten225AbstractSyncWithRemoteJobD1Ev@ABI_2_0 4:4.10.2
 _ZN7Kasten225AbstractSyncWithRemoteJobD2Ev@ABI_2_0 4:4.10.2
 _ZN7Kasten226AbstractModelDataGenerator11qt_metacallEN11QMetaObject4CallEiPPv@ABI_2_0 4:4.10.2
 _ZN7Kasten226AbstractModelDataGenerator11qt_metacastEPKc@ABI_2_0 4:4.10.2
 _ZN7Kasten226AbstractModelDataGenerator16staticMetaObjectE@ABI_2_0 4:4.10.2
 _ZN7Kasten226AbstractModelDataGeneratorC1EPNS_33AbstractModelDataGeneratorPrivateE@ABI_2_0 4:4.10.2
 _ZN7Kasten226AbstractModelDataGeneratorC1ERK7QStringS3_NS0_5FlagsE@ABI_2_0 4:4.10.2
 _ZN7Kasten226AbstractModelDataGeneratorC2EPNS_33AbstractModelDataGeneratorPrivateE@ABI_2_0 4:4.10.2
 _ZN7Kasten226AbstractModelDataGeneratorC2ERK7QStringS3_NS0_5FlagsE@ABI_2_0 4:4.10.2
 _ZN7Kasten226AbstractModelDataGeneratorD0Ev@ABI_2_0 4:4.10.2
 _ZN7Kasten226AbstractModelDataGeneratorD1Ev@ABI_2_0 4:4.10.2
 _ZN7Kasten226AbstractModelDataGeneratorD2Ev@ABI_2_0 4:4.10.2
 _ZN7Kasten226AbstractModelStreamEncoder11qt_metacallEN11QMetaObject4CallEiPPv@ABI_2_0 4:4.10.2
 _ZN7Kasten226AbstractModelStreamEncoder11qt_metacastEPKc@ABI_2_0 4:4.10.2
 _ZN7Kasten226AbstractModelStreamEncoder16staticMetaObjectE@ABI_2_0 4:4.10.2
 _ZN7Kasten226AbstractModelStreamEncoderC1EPNS_33AbstractModelStreamEncoderPrivateE@ABI_2_0 4:4.10.2
 _ZN7Kasten226AbstractModelStreamEncoderC1ERK7QStringS3_S3_@ABI_2_0 4:4.10.2
 _ZN7Kasten226AbstractModelStreamEncoderC2EPNS_33AbstractModelStreamEncoderPrivateE@ABI_2_0 4:4.10.2
 _ZN7Kasten226AbstractModelStreamEncoderC2ERK7QStringS3_S3_@ABI_2_0 4:4.10.2
 _ZN7Kasten226AbstractModelStreamEncoderD0Ev@ABI_2_0 4:4.10.2
 _ZN7Kasten226AbstractModelStreamEncoderD1Ev@ABI_2_0 4:4.10.2
 _ZN7Kasten226AbstractModelStreamEncoderD2Ev@ABI_2_0 4:4.10.2
 _ZN7Kasten227AbstractFileSystemExportJob11qt_metacallEN11QMetaObject4CallEiPPv@ABI_2_0 4:4.10.2
 _ZN7Kasten227AbstractFileSystemExportJob11qt_metacastEPKc@ABI_2_0 4:4.10.2
 _ZN7Kasten227AbstractFileSystemExportJob14completeExportEb@ABI_2_0 4:4.10.2
 _ZN7Kasten227AbstractFileSystemExportJob16staticMetaObjectE@ABI_2_0 4:4.10.2
 _ZN7Kasten227AbstractFileSystemExportJob5startEv@ABI_2_0 4:4.10.2
 _ZN7Kasten227AbstractFileSystemExportJobC1EPNS_13AbstractModelEPKNS_22AbstractModelSelectionERK4KUrl@ABI_2_0 4:4.10.2
 _ZN7Kasten227AbstractFileSystemExportJobC1EPNS_34AbstractFileSystemExportJobPrivateE@ABI_2_0 4:4.10.2
 _ZN7Kasten227AbstractFileSystemExportJobC2EPNS_13AbstractModelEPKNS_22AbstractModelSelectionERK4KUrl@ABI_2_0 4:4.10.2
 _ZN7Kasten227AbstractFileSystemExportJobC2EPNS_34AbstractFileSystemExportJobPrivateE@ABI_2_0 4:4.10.2
 _ZN7Kasten227AbstractFileSystemExportJobD0Ev@ABI_2_0 4:4.10.2
 _ZN7Kasten227AbstractFileSystemExportJobD1Ev@ABI_2_0 4:4.10.2
 _ZN7Kasten227AbstractFileSystemExportJobD2Ev@ABI_2_0 4:4.10.2
 _ZN7Kasten228AbstractFileSystemConnectJob11qt_metacallEN11QMetaObject4CallEiPPv@ABI_2_0 4:4.10.2
 _ZN7Kasten228AbstractFileSystemConnectJob11qt_metacastEPKc@ABI_2_0 4:4.10.2
 _ZN7Kasten228AbstractFileSystemConnectJob16staticMetaObjectE@ABI_2_0 4:4.10.2
 _ZN7Kasten228AbstractFileSystemConnectJob5startEv@ABI_2_0 4:4.10.2
 _ZN7Kasten228AbstractFileSystemConnectJob8completeEb@ABI_2_0 4:4.10.2
 _ZN7Kasten228AbstractFileSystemConnectJobC1EPNS_35AbstractModelFileSystemSynchronizerEPNS_16AbstractDocumentERK4KUrlNS_25AbstractModelSynchronizer13ConnectOptionE@ABI_2_0 4:4.10.2
 _ZN7Kasten228AbstractFileSystemConnectJobC2EPNS_35AbstractModelFileSystemSynchronizerEPNS_16AbstractDocumentERK4KUrlNS_25AbstractModelSynchronizer13ConnectOptionE@ABI_2_0 4:4.10.2
 _ZN7Kasten228AbstractFileSystemConnectJobD0Ev@ABI_2_0 4:4.10.2
 _ZN7Kasten228AbstractFileSystemConnectJobD1Ev@ABI_2_0 4:4.10.2
 _ZN7Kasten228AbstractFileSystemConnectJobD2Ev@ABI_2_0 4:4.10.2
 _ZN7Kasten230ModelEncoderFileSystemExporter11qt_metacallEN11QMetaObject4CallEiPPv@ABI_2_0 4:4.10.2
 _ZN7Kasten230ModelEncoderFileSystemExporter11qt_metacastEPKc@ABI_2_0 4:4.10.2
 _ZN7Kasten230ModelEncoderFileSystemExporter11startExportEPNS_13AbstractModelEPKNS_22AbstractModelSelectionERK4KUrl@ABI_2_0 4:4.10.2
 _ZN7Kasten230ModelEncoderFileSystemExporter16staticMetaObjectE@ABI_2_0 4:4.10.2
 _ZN7Kasten230ModelEncoderFileSystemExporterC1EPNS_26AbstractModelStreamEncoderE@ABI_2_0 4:4.10.2
 _ZN7Kasten230ModelEncoderFileSystemExporterC2EPNS_26AbstractModelStreamEncoderE@ABI_2_0 4:4.10.2
 _ZN7Kasten230ModelEncoderFileSystemExporterD0Ev@ABI_2_0 4:4.10.2
 _ZN7Kasten230ModelEncoderFileSystemExporterD1Ev@ABI_2_0 4:4.10.2
 _ZN7Kasten230ModelEncoderFileSystemExporterD2Ev@ABI_2_0 4:4.10.2
 _ZN7Kasten231ModelEncoderFileSystemExportJob11qt_metacallEN11QMetaObject4CallEiPPv@ABI_2_0 4:4.10.2
 _ZN7Kasten231ModelEncoderFileSystemExportJob11qt_metacastEPKc@ABI_2_0 4:4.10.2
 _ZN7Kasten231ModelEncoderFileSystemExportJob16staticMetaObjectE@ABI_2_0 4:4.10.2
 _ZN7Kasten231ModelEncoderFileSystemExportJob17startExportToFileEv@ABI_2_0 4:4.10.2
 _ZN7Kasten231ModelEncoderFileSystemExportJobC1EPNS_13AbstractModelEPKNS_22AbstractModelSelectionERK4KUrlPNS_26AbstractModelStreamEncoderE@ABI_2_0 4:4.10.2
 _ZN7Kasten231ModelEncoderFileSystemExportJobC2EPNS_13AbstractModelEPKNS_22AbstractModelSelectionERK4KUrlPNS_26AbstractModelStreamEncoderE@ABI_2_0 4:4.10.2
 _ZN7Kasten231ModelEncoderFileSystemExportJobD0Ev@ABI_2_0 4:4.10.2
 _ZN7Kasten231ModelEncoderFileSystemExportJobD1Ev@ABI_2_0 4:4.10.2
 _ZN7Kasten231ModelEncoderFileSystemExportJobD2Ev@ABI_2_0 4:4.10.2
 _ZN7Kasten232AbstractModelSynchronizerFactory11qt_metacallEN11QMetaObject4CallEiPPv@ABI_2_0 4:4.10.2
 _ZN7Kasten232AbstractModelSynchronizerFactory11qt_metacastEPKc@ABI_2_0 4:4.10.2
 _ZN7Kasten232AbstractModelSynchronizerFactory16staticMetaObjectE@ABI_2_0 4:4.10.2
 _ZN7Kasten232AbstractModelSynchronizerFactoryD0Ev@ABI_2_0 4:4.10.2
 _ZN7Kasten232AbstractModelSynchronizerFactoryD1Ev@ABI_2_0 4:4.10.2
 _ZN7Kasten232AbstractModelSynchronizerFactoryD2Ev@ABI_2_0 4:4.10.2
 _ZN7Kasten233AbstractFileSystemSyncToRemoteJob11qt_metacallEN11QMetaObject4CallEiPPv@ABI_2_0 4:4.10.2
 _ZN7Kasten233AbstractFileSystemSyncToRemoteJob11qt_metacastEPKc@ABI_2_0 4:4.10.2
 _ZN7Kasten233AbstractFileSystemSyncToRemoteJob13completeWriteEb@ABI_2_0 4:4.10.2
 _ZN7Kasten233AbstractFileSystemSyncToRemoteJob16staticMetaObjectE@ABI_2_0 4:4.10.2
 _ZN7Kasten233AbstractFileSystemSyncToRemoteJob5startEv@ABI_2_0 4:4.10.2
 _ZN7Kasten233AbstractFileSystemSyncToRemoteJobC1EPNS_35AbstractModelFileSystemSynchronizerE@ABI_2_0 4:4.10.2
 _ZN7Kasten233AbstractFileSystemSyncToRemoteJobC2EPNS_35AbstractModelFileSystemSynchronizerE@ABI_2_0 4:4.10.2
 _ZN7Kasten233AbstractFileSystemSyncToRemoteJobD0Ev@ABI_2_0 4:4.10.2
 _ZN7Kasten233AbstractFileSystemSyncToRemoteJobD1Ev@ABI_2_0 4:4.10.2
 _ZN7Kasten233AbstractFileSystemSyncToRemoteJobD2Ev@ABI_2_0 4:4.10.2
 _ZN7Kasten235AbstractFileSystemSyncFromRemoteJob11qt_metacallEN11QMetaObject4CallEiPPv@ABI_2_0 4:4.10.2
 _ZN7Kasten235AbstractFileSystemSyncFromRemoteJob11qt_metacastEPKc@ABI_2_0 4:4.10.2
 _ZN7Kasten235AbstractFileSystemSyncFromRemoteJob12completeReadEb@ABI_2_0 4:4.10.2
 _ZN7Kasten235AbstractFileSystemSyncFromRemoteJob16staticMetaObjectE@ABI_2_0 4:4.10.2
 _ZN7Kasten235AbstractFileSystemSyncFromRemoteJob5startEv@ABI_2_0 4:4.10.2
 _ZN7Kasten235AbstractFileSystemSyncFromRemoteJobC1EPNS_35AbstractModelFileSystemSynchronizerE@ABI_2_0 4:4.10.2
 _ZN7Kasten235AbstractFileSystemSyncFromRemoteJobC2EPNS_35AbstractModelFileSystemSynchronizerE@ABI_2_0 4:4.10.2
 _ZN7Kasten235AbstractFileSystemSyncFromRemoteJobD0Ev@ABI_2_0 4:4.10.2
 _ZN7Kasten235AbstractFileSystemSyncFromRemoteJobD1Ev@ABI_2_0 4:4.10.2
 _ZN7Kasten235AbstractFileSystemSyncFromRemoteJobD2Ev@ABI_2_0 4:4.10.2
 _ZN7Kasten235AbstractFileSystemSyncWithRemoteJob11qt_metacallEN11QMetaObject4CallEiPPv@ABI_2_0 4:4.10.2
 _ZN7Kasten235AbstractFileSystemSyncWithRemoteJob11qt_metacastEPKc@ABI_2_0 4:4.10.2
 _ZN7Kasten235AbstractFileSystemSyncWithRemoteJob12completeSyncEb@ABI_2_0 4:4.10.2
 _ZN7Kasten235AbstractFileSystemSyncWithRemoteJob16staticMetaObjectE@ABI_2_0 4:4.10.2
 _ZN7Kasten235AbstractFileSystemSyncWithRemoteJob5startEv@ABI_2_0 4:4.10.2
 _ZN7Kasten235AbstractFileSystemSyncWithRemoteJobC1EPNS_35AbstractModelFileSystemSynchronizerERK4KUrlNS_25AbstractModelSynchronizer13ConnectOptionE@ABI_2_0 4:4.10.2
 _ZN7Kasten235AbstractFileSystemSyncWithRemoteJobC2EPNS_35AbstractModelFileSystemSynchronizerERK4KUrlNS_25AbstractModelSynchronizer13ConnectOptionE@ABI_2_0 4:4.10.2
 _ZN7Kasten235AbstractFileSystemSyncWithRemoteJobD0Ev@ABI_2_0 4:4.10.2
 _ZN7Kasten235AbstractFileSystemSyncWithRemoteJobD1Ev@ABI_2_0 4:4.10.2
 _ZN7Kasten235AbstractFileSystemSyncWithRemoteJobD2Ev@ABI_2_0 4:4.10.2
 _ZN7Kasten235AbstractModelFileSystemSynchronizer11qt_metacallEN11QMetaObject4CallEiPPv@ABI_2_0 4:4.10.2
 _ZN7Kasten235AbstractModelFileSystemSynchronizer11qt_metacastEPKc@ABI_2_0 4:4.10.2
 _ZN7Kasten235AbstractModelFileSystemSynchronizer14setRemoteStateENS_15RemoteSyncStateE@ABI_2_0 4:4.10.2
 _ZN7Kasten235AbstractModelFileSystemSynchronizer16staticMetaObjectE@ABI_2_0 4:4.10.2
 _ZN7Kasten235AbstractModelFileSystemSynchronizer16stopFileWatchingEv@ABI_2_0 4:4.10.2
 _ZN7Kasten235AbstractModelFileSystemSynchronizer17pauseFileWatchingEv@ABI_2_0 4:4.10.2
 _ZN7Kasten235AbstractModelFileSystemSynchronizer17startFileWatchingEv@ABI_2_0 4:4.10.2
 _ZN7Kasten235AbstractModelFileSystemSynchronizer19stopNetworkWatchingEv@ABI_2_0 4:4.10.2
 _ZN7Kasten235AbstractModelFileSystemSynchronizer19unpauseFileWatchingEv@ABI_2_0 4:4.10.2
 _ZN7Kasten235AbstractModelFileSystemSynchronizer20startNetworkWatchingEv@ABI_2_0 4:4.10.2
 _ZN7Kasten235AbstractModelFileSystemSynchronizer21setFileDateTimeOnSyncERK9QDateTime@ABI_2_0 4:4.10.2
 _ZN7Kasten235AbstractModelFileSystemSynchronizerC1EPNS_42AbstractModelFileSystemSynchronizerPrivateE@ABI_2_0 4:4.10.2
 _ZN7Kasten235AbstractModelFileSystemSynchronizerC1Ev@ABI_2_0 4:4.10.2
 _ZN7Kasten235AbstractModelFileSystemSynchronizerC2EPNS_42AbstractModelFileSystemSynchronizerPrivateE@ABI_2_0 4:4.10.2
 _ZN7Kasten235AbstractModelFileSystemSynchronizerC2Ev@ABI_2_0 4:4.10.2
 _ZN7Kasten235AbstractModelFileSystemSynchronizerD0Ev@ABI_2_0 4:4.10.2
 _ZN7Kasten235AbstractModelFileSystemSynchronizerD1Ev@ABI_2_0 4:4.10.2
 _ZN7Kasten235AbstractModelFileSystemSynchronizerD2Ev@ABI_2_0 4:4.10.2
 _ZN7Kasten26Person8setEgoIdEi@ABI_2_0 4:4.10.2
 _ZN7Kasten26Person9createEgoEv@ABI_2_0 4:4.10.2
 _ZN7Kasten26PersonC1ERK7QStringRK5KIcon@ABI_2_0 4:4.10.2
 _ZN7Kasten26PersonC1ERKS0_@ABI_2_0 4:4.10.2
 _ZN7Kasten26PersonC1Ev@ABI_2_0 4:4.10.2
 _ZN7Kasten26PersonC2ERK7QStringRK5KIcon@ABI_2_0 4:4.10.2
 _ZN7Kasten26PersonC2ERKS0_@ABI_2_0 4:4.10.2
 _ZN7Kasten26PersonC2Ev@ABI_2_0 4:4.10.2
 _ZN7Kasten26PersonD1Ev@ABI_2_0 4:4.10.2
 _ZN7Kasten26PersonD2Ev@ABI_2_0 4:4.10.2
 _ZN7Kasten26PersonaSERKS0_@ABI_2_0 4:4.10.2
 _ZNK7Kasten212AbstractTool10metaObjectEv@ABI_2_0 4:4.10.2
 _ZNK7Kasten213AbstractModel10isReadOnlyEv@ABI_2_0 4:4.10.2
 _ZNK7Kasten213AbstractModel10metaObjectEv@ABI_2_0 4:4.10.2
 _ZNK7Kasten213AbstractModel12isModifiableEv@ABI_2_0 4:4.10.2
 _ZNK7Kasten213AbstractModel9baseModelEv@ABI_2_0 4:4.10.2
 _ZNK7Kasten215AbstractLoadJob10metaObjectEv@ABI_2_0 4:4.10.2
 _ZNK7Kasten215AbstractLoadJob8documentEv@ABI_2_0 4:4.10.2
 _ZNK7Kasten215DocumentManager10metaObjectEv@ABI_2_0 4:4.10.2
 _ZNK7Kasten215DocumentManager7isEmptyEv@ABI_2_0 4:4.10.2
 _ZNK7Kasten215DocumentManager9documentsEv@ABI_2_0 4:4.10.2
 _ZNK7Kasten216AbstractDocument10metaObjectEv@ABI_2_0 4:4.10.2
 _ZNK7Kasten216AbstractDocument12synchronizerEv@ABI_2_0 4:4.10.2
 _ZNK7Kasten216AbstractDocument2idEv@ABI_2_0 4:4.10.2
 _ZNK7Kasten217AbstractExportJob10metaObjectEv@ABI_2_0 4:4.10.2
 _ZNK7Kasten217AbstractExportJob8documentEv@ABI_2_0 4:4.10.2
 _ZNK7Kasten217ModelCodecManager10metaObjectEv@ABI_2_0 4:4.10.2
 _ZNK7Kasten217ModelCodecManager11decoderListEv@ABI_2_0 4:4.10.2
 _ZNK7Kasten217ModelCodecManager11encoderListEPNS_13AbstractModelEPKNS_22AbstractModelSelectionE@ABI_2_0 4:4.10.2
 _ZNK7Kasten217ModelCodecManager12exporterListEPNS_13AbstractModelEPKNS_22AbstractModelSelectionE@ABI_2_0 4:4.10.2
 _ZNK7Kasten217ModelCodecManager13generatorListEv@ABI_2_0 4:4.10.2
 _ZNK7Kasten218AbstractConnectJob10metaObjectEv@ABI_2_0 4:4.10.2
 _ZNK7Kasten219DocumentSyncManager10metaObjectEv@ABI_2_0 4:4.10.2
 _ZNK7Kasten219DocumentSyncManager20supportedRemoteTypesEv@ABI_2_0 4:4.10.2
 _ZNK7Kasten219DocumentSyncManager23hasSynchronizerForLocalERK7QString@ABI_2_0 4:4.10.2
 _ZNK7Kasten219DocumentSyncManager5urlOfEPNS_16AbstractDocumentE@ABI_2_0 4:4.10.2
 _ZNK7Kasten219DocumentVersionData13changeCommentEv@ABI_2_0 4:4.10.2
 _ZNK7Kasten219DocumentVersionData2idEv@ABI_2_0 4:4.10.2
 _ZNK7Kasten221AbstractModelExporter10metaObjectEv@ABI_2_0 4:4.10.2
 _ZNK7Kasten221AbstractModelExporter14remoteMimeTypeEv@ABI_2_0 4:4.10.2
 _ZNK7Kasten221AbstractModelExporter14remoteTypeNameEv@ABI_2_0 4:4.10.2
 _ZNK7Kasten221DocumentCreateManager10metaObjectEv@ABI_2_0 4:4.10.2
 _ZNK7Kasten221DocumentCreateManager20canCreateNewFromDataEPK9QMimeData@ABI_2_0 4:4.10.2
 _ZNK7Kasten223AbstractDocumentFactory10metaObjectEv@ABI_2_0 4:4.10.2
 _ZNK7Kasten223AbstractSyncToRemoteJob10metaObjectEv@ABI_2_0 4:4.10.2
 _ZNK7Kasten223ModelDataGenerateThread10metaObjectEv@ABI_2_0 4:4.10.2
 _ZNK7Kasten223ModelStreamEncodeThread10metaObjectEv@ABI_2_0 4:4.10.2
 _ZNK7Kasten225AbstractFileSystemLoadJob10metaObjectEv@ABI_2_0 4:4.10.2
 _ZNK7Kasten225AbstractFileSystemLoadJob12synchronizerEv@ABI_2_0 4:4.10.2
 _ZNK7Kasten225AbstractFileSystemLoadJob3urlEv@ABI_2_0 4:4.10.2
 _ZNK7Kasten225AbstractFileSystemLoadJob4fileEv@ABI_2_0 4:4.10.2
 _ZNK7Kasten225AbstractModelSynchronizer10dataPulledEi@ABI_2_0 4:4.10.2
 _ZNK7Kasten225AbstractModelSynchronizer10dataPushedEi@ABI_2_0 4:4.10.2
 _ZNK7Kasten225AbstractModelSynchronizer10metaObjectEv@ABI_2_0 4:4.10.2
 _ZNK7Kasten225AbstractModelSynchronizer3urlEv@ABI_2_0 4:4.10.2
 _ZNK7Kasten225AbstractSyncFromRemoteJob10metaObjectEv@ABI_2_0 4:4.10.2
 _ZNK7Kasten225AbstractSyncWithRemoteJob10metaObjectEv@ABI_2_0 4:4.10.2
 _ZNK7Kasten226AbstractModelDataGenerator10metaObjectEv@ABI_2_0 4:4.10.2
 _ZNK7Kasten226AbstractModelDataGenerator5flagsEv@ABI_2_0 4:4.10.2
 _ZNK7Kasten226AbstractModelDataGenerator8mimeTypeEv@ABI_2_0 4:4.10.2
 _ZNK7Kasten226AbstractModelDataGenerator8typeNameEv@ABI_2_0 4:4.10.2
 _ZNK7Kasten226AbstractModelStreamEncoder10metaObjectEv@ABI_2_0 4:4.10.2
 _ZNK7Kasten226AbstractModelStreamEncoder14remoteMimeTypeEv@ABI_2_0 4:4.10.2
 _ZNK7Kasten226AbstractModelStreamEncoder14remoteTypeNameEv@ABI_2_0 4:4.10.2
 _ZNK7Kasten226AbstractModelStreamEncoder23remoteClipboardMimeTypeEv@ABI_2_0 4:4.10.2
 _ZNK7Kasten227AbstractFileSystemExportJob10metaObjectEv@ABI_2_0 4:4.10.2
 _ZNK7Kasten227AbstractFileSystemExportJob4fileEv@ABI_2_0 4:4.10.2
 _ZNK7Kasten227AbstractFileSystemExportJob5modelEv@ABI_2_0 4:4.10.2
 _ZNK7Kasten227AbstractFileSystemExportJob9selectionEv@ABI_2_0 4:4.10.2
 _ZNK7Kasten228AbstractFileSystemConnectJob10metaObjectEv@ABI_2_0 4:4.10.2
 _ZNK7Kasten228AbstractFileSystemConnectJob12synchronizerEv@ABI_2_0 4:4.10.2
 _ZNK7Kasten228AbstractFileSystemConnectJob4fileEv@ABI_2_0 4:4.10.2
 _ZNK7Kasten228AbstractFileSystemConnectJob8documentEv@ABI_2_0 4:4.10.2
 _ZNK7Kasten230ModelEncoderFileSystemExporter10metaObjectEv@ABI_2_0 4:4.10.2
 _ZNK7Kasten230ModelEncoderFileSystemExporter13modelTypeNameEPNS_13AbstractModelEPKNS_22AbstractModelSelectionE@ABI_2_0 4:4.10.2
 _ZNK7Kasten230ModelEncoderFileSystemExporter7encoderEv@ABI_2_0 4:4.10.2
 _ZNK7Kasten231ModelEncoderFileSystemExportJob10metaObjectEv@ABI_2_0 4:4.10.2
 _ZNK7Kasten232AbstractModelSynchronizerFactory10metaObjectEv@ABI_2_0 4:4.10.2
 _ZNK7Kasten233AbstractFileSystemSyncToRemoteJob10metaObjectEv@ABI_2_0 4:4.10.2
 _ZNK7Kasten233AbstractFileSystemSyncToRemoteJob12synchronizerEv@ABI_2_0 4:4.10.2
 _ZNK7Kasten233AbstractFileSystemSyncToRemoteJob4fileEv@ABI_2_0 4:4.10.2
 _ZNK7Kasten235AbstractFileSystemSyncFromRemoteJob10metaObjectEv@ABI_2_0 4:4.10.2
 _ZNK7Kasten235AbstractFileSystemSyncFromRemoteJob12synchronizerEv@ABI_2_0 4:4.10.2
 _ZNK7Kasten235AbstractFileSystemSyncFromRemoteJob4fileEv@ABI_2_0 4:4.10.2
 _ZNK7Kasten235AbstractFileSystemSyncWithRemoteJob10metaObjectEv@ABI_2_0 4:4.10.2
 _ZNK7Kasten235AbstractFileSystemSyncWithRemoteJob12synchronizerEv@ABI_2_0 4:4.10.2
 _ZNK7Kasten235AbstractFileSystemSyncWithRemoteJob4fileEv@ABI_2_0 4:4.10.2
 _ZNK7Kasten235AbstractModelFileSystemSynchronizer10metaObjectEv@ABI_2_0 4:4.10.2
 _ZNK7Kasten235AbstractModelFileSystemSynchronizer15remoteSyncStateEv@ABI_2_0 4:4.10.2
 _ZNK7Kasten26Person4nameEv@ABI_2_0 4:4.10.2
 _ZNK7Kasten26Person8faceIconEv@ABI_2_0 4:4.10.2
 _ZNK7Kasten26PersoneqERKS0_@ABI_2_0 4:4.10.2
 _ZTIN7Kasten212AbstractToolE@ABI_2_0 4:4.10.2
 _ZTIN7Kasten213AbstractModelE@ABI_2_0 4:4.10.2
 _ZTIN7Kasten215AbstractLoadJobE@ABI_2_0 4:4.10.2
 _ZTIN7Kasten215DocumentManagerE@ABI_2_0 4:4.10.2
 _ZTIN7Kasten216AbstractDocumentE@ABI_2_0 4:4.10.2
 _ZTIN7Kasten217AbstractExportJobE@ABI_2_0 4:4.10.2
 _ZTIN7Kasten217ModelCodecManagerE@ABI_2_0 4:4.10.2
 _ZTIN7Kasten218AbstractConnectJobE@ABI_2_0 4:4.10.2
 _ZTIN7Kasten219DocumentSyncManagerE@ABI_2_0 4:4.10.2
 _ZTIN7Kasten221AbstractModelExporterE@ABI_2_0 4:4.10.2
 _ZTIN7Kasten221DocumentCreateManagerE@ABI_2_0 4:4.10.2
 _ZTIN7Kasten222AbstractModelSelectionE@ABI_2_0 4:4.10.2
 _ZTIN7Kasten223AbstractDocumentFactoryE@ABI_2_0 4:4.10.2
 _ZTIN7Kasten223AbstractOverwriteDialogE@ABI_2_0 4:4.10.2
 _ZTIN7Kasten223AbstractSyncToRemoteJobE@ABI_2_0 4:4.10.2
 _ZTIN7Kasten223ModelDataGenerateThreadE@ABI_2_0 4:4.10.2
 _ZTIN7Kasten223ModelStreamEncodeThreadE@ABI_2_0 4:4.10.2
 _ZTIN7Kasten225AbstractFileSystemLoadJobE@ABI_2_0 4:4.10.2
 _ZTIN7Kasten225AbstractModelSynchronizerE@ABI_2_0 4:4.10.2
 _ZTIN7Kasten225AbstractSaveDiscardDialogE@ABI_2_0 4:4.10.2
 _ZTIN7Kasten225AbstractSyncFromRemoteJobE@ABI_2_0 4:4.10.2
 _ZTIN7Kasten225AbstractSyncWithRemoteJobE@ABI_2_0 4:4.10.2
 _ZTIN7Kasten226AbstractModelDataGeneratorE@ABI_2_0 4:4.10.2
 _ZTIN7Kasten226AbstractModelStreamEncoderE@ABI_2_0 4:4.10.2
 _ZTIN7Kasten227AbstractFileSystemExportJobE@ABI_2_0 4:4.10.2
 _ZTIN7Kasten228AbstractFileSystemConnectJobE@ABI_2_0 4:4.10.2
 _ZTIN7Kasten230ModelEncoderFileSystemExporterE@ABI_2_0 4:4.10.2
 _ZTIN7Kasten231ModelEncoderFileSystemExportJobE@ABI_2_0 4:4.10.2
 _ZTIN7Kasten232AbstractModelSynchronizerFactoryE@ABI_2_0 4:4.10.2
 _ZTIN7Kasten233AbstractFileSystemSyncToRemoteJobE@ABI_2_0 4:4.10.2
 _ZTIN7Kasten235AbstractFileSystemSyncFromRemoteJobE@ABI_2_0 4:4.10.2
 _ZTIN7Kasten235AbstractFileSystemSyncWithRemoteJobE@ABI_2_0 4:4.10.2
 _ZTIN7Kasten235AbstractModelFileSystemSynchronizerE@ABI_2_0 4:4.10.2
 _ZTSN7Kasten212AbstractToolE@ABI_2_0 4:4.10.2
 _ZTSN7Kasten213AbstractModelE@ABI_2_0 4:4.10.2
 _ZTSN7Kasten215AbstractLoadJobE@ABI_2_0 4:4.10.2
 _ZTSN7Kasten215DocumentManagerE@ABI_2_0 4:4.10.2
 _ZTSN7Kasten216AbstractDocumentE@ABI_2_0 4:4.10.2
 _ZTSN7Kasten217AbstractExportJobE@ABI_2_0 4:4.10.2
 _ZTSN7Kasten217ModelCodecManagerE@ABI_2_0 4:4.10.2
 _ZTSN7Kasten218AbstractConnectJobE@ABI_2_0 4:4.10.2
 _ZTSN7Kasten219DocumentSyncManagerE@ABI_2_0 4:4.10.2
 _ZTSN7Kasten221AbstractModelExporterE@ABI_2_0 4:4.10.2
 _ZTSN7Kasten221DocumentCreateManagerE@ABI_2_0 4:4.10.2
 _ZTSN7Kasten222AbstractModelSelectionE@ABI_2_0 4:4.10.2
 _ZTSN7Kasten223AbstractDocumentFactoryE@ABI_2_0 4:4.10.2
 _ZTSN7Kasten223AbstractOverwriteDialogE@ABI_2_0 4:4.10.2
 _ZTSN7Kasten223AbstractSyncToRemoteJobE@ABI_2_0 4:4.10.2
 _ZTSN7Kasten223ModelDataGenerateThreadE@ABI_2_0 4:4.10.2
 _ZTSN7Kasten223ModelStreamEncodeThreadE@ABI_2_0 4:4.10.2
 _ZTSN7Kasten225AbstractFileSystemLoadJobE@ABI_2_0 4:4.10.2
 _ZTSN7Kasten225AbstractModelSynchronizerE@ABI_2_0 4:4.10.2
 _ZTSN7Kasten225AbstractSaveDiscardDialogE@ABI_2_0 4:4.10.2
 _ZTSN7Kasten225AbstractSyncFromRemoteJobE@ABI_2_0 4:4.10.2
 _ZTSN7Kasten225AbstractSyncWithRemoteJobE@ABI_2_0 4:4.10.2
 _ZTSN7Kasten226AbstractModelDataGeneratorE@ABI_2_0 4:4.10.2
 _ZTSN7Kasten226AbstractModelStreamEncoderE@ABI_2_0 4:4.10.2
 _ZTSN7Kasten227AbstractFileSystemExportJobE@ABI_2_0 4:4.10.2
 _ZTSN7Kasten228AbstractFileSystemConnectJobE@ABI_2_0 4:4.10.2
 _ZTSN7Kasten230ModelEncoderFileSystemExporterE@ABI_2_0 4:4.10.2
 _ZTSN7Kasten231ModelEncoderFileSystemExportJobE@ABI_2_0 4:4.10.2
 _ZTSN7Kasten232AbstractModelSynchronizerFactoryE@ABI_2_0 4:4.10.2
 _ZTSN7Kasten233AbstractFileSystemSyncToRemoteJobE@ABI_2_0 4:4.10.2
 _ZTSN7Kasten235AbstractFileSystemSyncFromRemoteJobE@ABI_2_0 4:4.10.2
 _ZTSN7Kasten235AbstractFileSystemSyncWithRemoteJobE@ABI_2_0 4:4.10.2
 _ZTSN7Kasten235AbstractModelFileSystemSynchronizerE@ABI_2_0 4:4.10.2
 _ZTVN7Kasten212AbstractToolE@ABI_2_0 4:4.10.2
 _ZTVN7Kasten213AbstractModelE@ABI_2_0 4:4.10.2
 _ZTVN7Kasten215AbstractLoadJobE@ABI_2_0 4:4.10.2
 _ZTVN7Kasten215DocumentManagerE@ABI_2_0 4:4.10.2
 _ZTVN7Kasten216AbstractDocumentE@ABI_2_0 4:4.10.2
 _ZTVN7Kasten217AbstractExportJobE@ABI_2_0 4:4.10.2
 _ZTVN7Kasten217ModelCodecManagerE@ABI_2_0 4:4.10.2
 _ZTVN7Kasten218AbstractConnectJobE@ABI_2_0 4:4.10.2
 _ZTVN7Kasten219DocumentSyncManagerE@ABI_2_0 4:4.10.2
 _ZTVN7Kasten221AbstractModelExporterE@ABI_2_0 4:4.10.2
 _ZTVN7Kasten221DocumentCreateManagerE@ABI_2_0 4:4.10.2
 _ZTVN7Kasten222AbstractModelSelectionE@ABI_2_0 4:4.10.2
 _ZTVN7Kasten223AbstractDocumentFactoryE@ABI_2_0 4:4.10.2
 _ZTVN7Kasten223AbstractOverwriteDialogE@ABI_2_0 4:4.10.2
 _ZTVN7Kasten223AbstractSyncToRemoteJobE@ABI_2_0 4:4.10.2
 _ZTVN7Kasten223ModelDataGenerateThreadE@ABI_2_0 4:4.10.2
 _ZTVN7Kasten223ModelStreamEncodeThreadE@ABI_2_0 4:4.10.2
 _ZTVN7Kasten225AbstractFileSystemLoadJobE@ABI_2_0 4:4.10.2
 _ZTVN7Kasten225AbstractModelSynchronizerE@ABI_2_0 4:4.10.2
 _ZTVN7Kasten225AbstractSaveDiscardDialogE@ABI_2_0 4:4.10.2
 _ZTVN7Kasten225AbstractSyncFromRemoteJobE@ABI_2_0 4:4.10.2
 _ZTVN7Kasten225AbstractSyncWithRemoteJobE@ABI_2_0 4:4.10.2
 _ZTVN7Kasten226AbstractModelDataGeneratorE@ABI_2_0 4:4.10.2
 _ZTVN7Kasten226AbstractModelStreamEncoderE@ABI_2_0 4:4.10.2
 _ZTVN7Kasten227AbstractFileSystemExportJobE@ABI_2_0 4:4.10.2
 _ZTVN7Kasten228AbstractFileSystemConnectJobE@ABI_2_0 4:4.10.2
 _ZTVN7Kasten230ModelEncoderFileSystemExporterE@ABI_2_0 4:4.10.2
 _ZTVN7Kasten231ModelEncoderFileSystemExportJobE@ABI_2_0 4:4.10.2
 _ZTVN7Kasten232AbstractModelSynchronizerFactoryE@ABI_2_0 4:4.10.2
 _ZTVN7Kasten233AbstractFileSystemSyncToRemoteJobE@ABI_2_0 4:4.10.2
 _ZTVN7Kasten235AbstractFileSystemSyncFromRemoteJobE@ABI_2_0 4:4.10.2
 _ZTVN7Kasten235AbstractFileSystemSyncWithRemoteJobE@ABI_2_0 4:4.10.2
 _ZTVN7Kasten235AbstractModelFileSystemSynchronizerE@ABI_2_0 4:4.10.2
