# SymbolsHelper-Confirmed: 4:4.6.1 amd64
liboktetakastencore.so.4 liboktetakastencore4 #MINVER#
 ABI_4_0@ABI_4_0 4:4.6.1
 _ZN6Kasten17ByteArrayDocument10usersAddedERK5QListINS_6PersonEE@ABI_4_0 4:4.6.1
 _ZN6Kasten17ByteArrayDocument11qt_metacallEN11QMetaObject4CallEiPPv@ABI_4_0 4:4.6.1
 _ZN6Kasten17ByteArrayDocument11qt_metacastEPKc@ABI_4_0 4:4.6.1
 _ZN6Kasten17ByteArrayDocument11removeUsersERK5QListINS_6PersonEE@ABI_4_0 4:4.6.1
 _ZN6Kasten17ByteArrayDocument11setReadOnlyEb@ABI_4_0 4:4.6.1
 _ZN6Kasten17ByteArrayDocument12usersRemovedERK5QListINS_6PersonEE@ABI_4_0 4:4.6.1
 _ZN6Kasten17ByteArrayDocument15onModelModifiedEb@ABI_4_0 4:4.6.1
 _ZN6Kasten17ByteArrayDocument16staticMetaObjectE@ABI_4_0 4:4.6.1
 _ZN6Kasten17ByteArrayDocument18headVersionChangedEi@ABI_4_0 4:4.6.1
 _ZN6Kasten17ByteArrayDocument22headVersionDataChangedERKNS_19DocumentVersionDataE@ABI_4_0 4:4.6.1
 _ZN6Kasten17ByteArrayDocument22revertToVersionByIndexEi@ABI_4_0 4:4.6.1
 _ZN6Kasten17ByteArrayDocument22revertedToVersionIndexEi@ABI_4_0 4:4.6.1
 _ZN6Kasten17ByteArrayDocument31onHeadVersionDescriptionChangedERK7QString@ABI_4_0 4:4.6.1
 _ZN6Kasten17ByteArrayDocument8addUsersERK5QListINS_6PersonEE@ABI_4_0 4:4.6.1
 _ZN6Kasten17ByteArrayDocument8setOwnerERKNS_6PersonE@ABI_4_0 4:4.6.1
 _ZN6Kasten17ByteArrayDocument8setTitleERK7QString@ABI_4_0 4:4.6.1
 _ZN6Kasten17ByteArrayDocumentC1EPN6Okteta24PieceTableByteArrayModelERK7QString@ABI_4_0 4:4.6.1
 _ZN6Kasten17ByteArrayDocumentC1ERK7QString@ABI_4_0 4:4.6.1
 _ZN6Kasten17ByteArrayDocumentC2EPN6Okteta24PieceTableByteArrayModelERK7QString@ABI_4_0 4:4.6.1
 _ZN6Kasten17ByteArrayDocumentC2ERK7QString@ABI_4_0 4:4.6.1
 _ZN6Kasten17ByteArrayDocumentD0Ev@ABI_4_0 4:4.6.1
 _ZN6Kasten17ByteArrayDocumentD1Ev@ABI_4_0 4:4.6.1
 _ZN6Kasten17ByteArrayDocumentD2Ev@ABI_4_0 4:4.6.1
 _ZN6Kasten18ByteArraySelection8setRangeERKN3KDE11NumberRangeIiiEE@ABI_4_0 4:4.6.1
 _ZN6Kasten18ByteArraySelectionC1Ev@ABI_4_0 4:4.6.1
 _ZN6Kasten18ByteArraySelectionC2Ev@ABI_4_0 4:4.6.1
 _ZN6Kasten18ByteArraySelectionD0Ev@ABI_4_0 4:4.6.1
 _ZN6Kasten18ByteArraySelectionD1Ev@ABI_4_0 4:4.6.1
 _ZN6Kasten18ByteArraySelectionD2Ev@ABI_4_0 4:4.6.1
 _ZN6Kasten24ByteArrayDocumentFactory11qt_metacallEN11QMetaObject4CallEiPPv@ABI_4_0 4:4.6.1
 _ZN6Kasten24ByteArrayDocumentFactory11qt_metacastEPKc@ABI_4_0 4:4.6.1
 _ZN6Kasten24ByteArrayDocumentFactory14createFromDataEPK9QMimeDatab@ABI_4_0 4:4.6.1
 _ZN6Kasten24ByteArrayDocumentFactory16staticMetaObjectE@ABI_4_0 4:4.6.1
 _ZN6Kasten24ByteArrayDocumentFactory17canCreateFromDataEPK9QMimeData@ABI_4_0 4:4.6.1
 _ZN6Kasten24ByteArrayDocumentFactory6createEv@ABI_4_0 4:4.6.1
 _ZN6Kasten28ByteArrayRawFileSynchronizer11onUrlChangeERK4KUrl@ABI_4_0 4:4.6.1
 _ZN6Kasten28ByteArrayRawFileSynchronizer11qt_metacallEN11QMetaObject4CallEiPPv@ABI_4_0 4:4.6.1
 _ZN6Kasten28ByteArrayRawFileSynchronizer11qt_metacastEPKc@ABI_4_0 4:4.6.1
 _ZN6Kasten28ByteArrayRawFileSynchronizer12startConnectEPNS_16AbstractDocumentERK4KUrlNS_25AbstractModelSynchronizer13ConnectOptionE@ABI_4_0 4:4.6.1
 _ZN6Kasten28ByteArrayRawFileSynchronizer13startOfferingEPNS_16AbstractDocumentE@ABI_4_0 4:4.6.1
 _ZN6Kasten28ByteArrayRawFileSynchronizer16staticMetaObjectE@ABI_4_0 4:4.6.1
 _ZN6Kasten28ByteArrayRawFileSynchronizer17startSyncToRemoteEv@ABI_4_0 4:4.6.1
 _ZN6Kasten28ByteArrayRawFileSynchronizer19startSyncFromRemoteEv@ABI_4_0 4:4.6.1
 _ZN6Kasten28ByteArrayRawFileSynchronizer19startSyncWithRemoteERK4KUrlNS_25AbstractModelSynchronizer13ConnectOptionE@ABI_4_0 4:4.6.1
 _ZN6Kasten28ByteArrayRawFileSynchronizer9startLoadERK4KUrl@ABI_4_0 4:4.6.1
 _ZN6Kasten28ByteArrayRawFileSynchronizerC1Ev@ABI_4_0 4:4.6.1
 _ZN6Kasten28ByteArrayRawFileSynchronizerC2Ev@ABI_4_0 4:4.6.1
 _ZN6Kasten35ByteArrayRawFileSynchronizerFactory11qt_metacallEN11QMetaObject4CallEiPPv@ABI_4_0 4:4.6.1
 _ZN6Kasten35ByteArrayRawFileSynchronizerFactory11qt_metacastEPKc@ABI_4_0 4:4.6.1
 _ZN6Kasten35ByteArrayRawFileSynchronizerFactory16staticMetaObjectE@ABI_4_0 4:4.6.1
 _ZN6Kasten35ByteArrayRawFileSynchronizerFactoryC1Ev@ABI_4_0 4:4.6.1
 _ZN6Kasten35ByteArrayRawFileSynchronizerFactoryC2Ev@ABI_4_0 4:4.6.1
 _ZN6Kasten35ByteArrayRawFileSynchronizerFactoryD0Ev@ABI_4_0 4:4.6.1
 _ZN6Kasten35ByteArrayRawFileSynchronizerFactoryD1Ev@ABI_4_0 4:4.6.1
 _ZN6Kasten35ByteArrayRawFileSynchronizerFactoryD2Ev@ABI_4_0 4:4.6.1
 _ZNK6Kasten17ByteArrayDocument10isReadOnlyEv@ABI_4_0 4:4.6.1
 _ZNK6Kasten17ByteArrayDocument10metaObjectEv@ABI_4_0 4:4.6.1
 _ZNK6Kasten17ByteArrayDocument11versionDataEi@ABI_4_0 4:4.6.1
 _ZNK6Kasten17ByteArrayDocument12isModifiableEv@ABI_4_0 4:4.6.1
 _ZNK6Kasten17ByteArrayDocument12versionCountEv@ABI_4_0 4:4.6.1
 _ZNK6Kasten17ByteArrayDocument12versionIndexEv@ABI_4_0 4:4.6.1
 _ZNK6Kasten17ByteArrayDocument14localSyncStateEv@ABI_4_0 4:4.6.1
 _ZNK6Kasten17ByteArrayDocument5ownerEv@ABI_4_0 4:4.6.1
 _ZNK6Kasten17ByteArrayDocument5titleEv@ABI_4_0 4:4.6.1
 _ZNK6Kasten17ByteArrayDocument7contentEv@ABI_4_0 4:4.6.1
 _ZNK6Kasten17ByteArrayDocument8mimeTypeEv@ABI_4_0 4:4.6.1
 _ZNK6Kasten17ByteArrayDocument8typeNameEv@ABI_4_0 4:4.6.1
 _ZNK6Kasten17ByteArrayDocument8userListEv@ABI_4_0 4:4.6.1
 _ZNK6Kasten18ByteArraySelection5rangeEv@ABI_4_0 4:4.6.1
 _ZNK6Kasten18ByteArraySelection7isValidEv@ABI_4_0 4:4.6.1
 _ZNK6Kasten24ByteArrayDocumentFactory10metaObjectEv@ABI_4_0 4:4.6.1
 _ZNK6Kasten28ByteArrayRawFileSynchronizer10metaObjectEv@ABI_4_0 4:4.6.1
 _ZNK6Kasten28ByteArrayRawFileSynchronizer8documentEv@ABI_4_0 4:4.6.1
 _ZNK6Kasten35ByteArrayRawFileSynchronizerFactory10metaObjectEv@ABI_4_0 4:4.6.1
 _ZNK6Kasten35ByteArrayRawFileSynchronizerFactory17supportedWorkTypeEv@ABI_4_0 4:4.6.1
 _ZNK6Kasten35ByteArrayRawFileSynchronizerFactory18createSynchronizerEv@ABI_4_0 4:4.6.1
 _ZNK6Kasten35ByteArrayRawFileSynchronizerFactory19supportedRemoteTypeEv@ABI_4_0 4:4.6.1
 _ZTIN6Kasten17ByteArrayDocumentE@ABI_4_0 4:4.6.1
 _ZTIN6Kasten18ByteArraySelectionE@ABI_4_0 4:4.6.1
 _ZTIN6Kasten24ByteArrayDocumentFactoryE@ABI_4_0 4:4.6.1
 _ZTIN6Kasten28ByteArrayRawFileSynchronizerE@ABI_4_0 4:4.6.1
 _ZTIN6Kasten35ByteArrayRawFileSynchronizerFactoryE@ABI_4_0 4:4.6.1
 _ZTSN6Kasten17ByteArrayDocumentE@ABI_4_0 4:4.6.1
 _ZTSN6Kasten18ByteArraySelectionE@ABI_4_0 4:4.6.1
 _ZTSN6Kasten24ByteArrayDocumentFactoryE@ABI_4_0 4:4.6.1
 _ZTSN6Kasten28ByteArrayRawFileSynchronizerE@ABI_4_0 4:4.6.1
 _ZTSN6Kasten35ByteArrayRawFileSynchronizerFactoryE@ABI_4_0 4:4.6.1
 _ZTVN6Kasten17ByteArrayDocumentE@ABI_4_0 4:4.6.1
 _ZTVN6Kasten18ByteArraySelectionE@ABI_4_0 4:4.6.1
 _ZTVN6Kasten24ByteArrayDocumentFactoryE@ABI_4_0 4:4.6.1
 _ZTVN6Kasten28ByteArrayRawFileSynchronizerE@ABI_4_0 4:4.6.1
 _ZTVN6Kasten35ByteArrayRawFileSynchronizerFactoryE@ABI_4_0 4:4.6.1
 (c++)"non-virtual thunk to Kasten::ByteArrayDocument::headVersionChanged(int)@ABI_4_0" 4:4.6.1
 (c++)"non-virtual thunk to Kasten::ByteArrayDocument::headVersionDataChanged(Kasten::DocumentVersionData const&)@ABI_4_0" 4:4.6.1
 (c++)"non-virtual thunk to Kasten::ByteArrayDocument::owner() const@ABI_4_0" 4:4.6.1
 (c++)"non-virtual thunk to Kasten::ByteArrayDocument::revertToVersionByIndex(int)@ABI_4_0" 4:4.6.1
 (c++)"non-virtual thunk to Kasten::ByteArrayDocument::revertedToVersionIndex(int)@ABI_4_0" 4:4.6.1
 (c++)"non-virtual thunk to Kasten::ByteArrayDocument::userList() const@ABI_4_0" 4:4.6.1
 (c++)"non-virtual thunk to Kasten::ByteArrayDocument::usersAdded(QList<Kasten::Person> const&)@ABI_4_0" 4:4.6.1
 (c++)"non-virtual thunk to Kasten::ByteArrayDocument::usersRemoved(QList<Kasten::Person> const&)@ABI_4_0" 4:4.6.1
 (c++)"non-virtual thunk to Kasten::ByteArrayDocument::versionCount() const@ABI_4_0" 4:4.6.1
 (c++)"non-virtual thunk to Kasten::ByteArrayDocument::versionData(int) const@ABI_4_0" 4:4.6.1
 (c++)"non-virtual thunk to Kasten::ByteArrayDocument::versionIndex() const@ABI_4_0" 4:4.6.1
 (c++)"non-virtual thunk to Kasten::ByteArrayDocument::~ByteArrayDocument()@ABI_4_0" 4:4.6.1
