# SymbolsHelper-Confirmed: 4:4.7.4 amd64 armel armhf hurd-i386 i386 ia64 kfreebsd-amd64 kfreebsd-i386 mips mipsel powerpc s390 s390x sparc
liboktetagui.so.4 liboktetagui4 #MINVER#
* Build-Depends-Package: okteta-dev
 ABI_4_0@ABI_4_0 4:4.6.1
 _ZN6Okteta11ColumnsView10paintEventEP11QPaintEvent@ABI_4_0 4:4.6.1
 _ZN6Okteta11ColumnsView11qt_metacallEN11QMetaObject4CallEiPPv@ABI_4_0 4:4.6.1
 _ZN6Okteta11ColumnsView11qt_metacastEPKc@ABI_4_0 4:4.6.1
 _ZN6Okteta11ColumnsView11resizeEventEP12QResizeEvent@ABI_4_0 4:4.6.1
 _ZN6Okteta11ColumnsView12removeColumnEPNS_22AbstractColumnRendererE@ABI_4_0 4:4.6.1
 _ZN6Okteta11ColumnsView12setNoOfLinesEi@ABI_4_0 4:4.6.1
 _ZN6Okteta11ColumnsView12updateColumnERNS_22AbstractColumnRendererE@ABI_4_0 4:4.6.1
 _ZN6Okteta11ColumnsView12updateColumnERNS_22AbstractColumnRendererERKN3KDE11NumberRangeIiiEE@ABI_4_0 4:4.6.1
 _ZN6Okteta11ColumnsView12updateWidthsEv@ABI_4_0 4:4.6.1
 _ZN6Okteta11ColumnsView13renderColumnsEP8QPainteriiii@ABI_4_0 4:4.6.1
 _ZN6Okteta11ColumnsView13setColumnsPosEii@ABI_4_0 4:4.6.1
 _ZN6Okteta11ColumnsView13setLineHeightEi@ABI_4_0 4:4.6.1
 _ZN6Okteta11ColumnsView15renderEmptyAreaEP8QPainteriiii@ABI_4_0 4:4.6.1
 _ZN6Okteta11ColumnsView16scrollContentsByEii@ABI_4_0 4:4.6.1
 _ZN6Okteta11ColumnsView16staticMetaObjectE@ABI_4_0 4:4.6.1
 _ZN6Okteta11ColumnsView16updateScrollBarsEv@ABI_4_0 4:4.6.1
 _ZN6Okteta11ColumnsView5eventEP6QEvent@ABI_4_0 4:4.6.1
 _ZN6Okteta11ColumnsView9addColumnEPNS_22AbstractColumnRendererE@ABI_4_0 4:4.6.1
 _ZN6Okteta11ColumnsViewC1EP7QWidget@ABI_4_0 4:4.6.1
 _ZN6Okteta11ColumnsViewC2EP7QWidget@ABI_4_0 4:4.6.1
 _ZN6Okteta11ColumnsViewD0Ev@ABI_4_0 4:4.6.1
 _ZN6Okteta11ColumnsViewD1Ev@ABI_4_0 4:4.6.1
 _ZN6Okteta11ColumnsViewD2Ev@ABI_4_0 4:4.6.1
 _ZN6Okteta12OffsetFormat11CodingWidthE@ABI_4_0 4:4.6.1
 _ZN6Okteta12OffsetFormat13PrintFunctionE@ABI_4_0 4:4.6.1
 _ZN6Okteta12OffsetFormat18printDecimalOffsetEPcj@ABI_4_0 4:4.6.1
 _ZN6Okteta12OffsetFormat22printHexadecimalOffsetEPcj@ABI_4_0 4:4.6.1
 _ZN6Okteta12OffsetFormat27printHexadecimalSmallOffsetEPcj@ABI_4_0 4:4.6.1
 _ZN6Okteta16ByteArrayRowView11changeEventEP6QEvent@ABI_4_0 4:4.6.1
 _ZN6Okteta16ByteArrayRowView11qt_metacallEN11QMetaObject4CallEiPPv@ABI_4_0 4:4.6.1
 _ZN6Okteta16ByteArrayRowView11qt_metacastEPKc@ABI_4_0 4:4.6.1
 _ZN6Okteta16ByteArrayRowView13renderColumnsEP8QPainteriiii@ABI_4_0 4:4.6.1
 _ZN6Okteta16ByteArrayRowView13setCharCodingENS_21AbstractByteArrayView10CharCodingE@ABI_4_0 4:4.6.1
 _ZN6Okteta16ByteArrayRowView13setCharCodingERK7QString@ABI_4_0 4:4.6.1
 _ZN6Okteta16ByteArrayRowView14setValueCodingENS_21AbstractByteArrayView11ValueCodingE@ABI_4_0 4:4.6.1
 _ZN6Okteta16ByteArrayRowView16setBufferSpacingEiii@ABI_4_0 4:4.6.1
 _ZN6Okteta16ByteArrayRowView16setUndefinedCharE5QChar@ABI_4_0 4:4.6.1
 _ZN6Okteta16ByteArrayRowView16staticMetaObjectE@ABI_4_0 4:4.6.1
 _ZN6Okteta16ByteArrayRowView17setBinaryGapWidthEi@ABI_4_0 4:4.6.1
 _ZN6Okteta16ByteArrayRowView17setByteArrayModelEPNS_22AbstractByteArrayModelE@ABI_4_0 4:4.6.1
 _ZN6Okteta16ByteArrayRowView17setSubstituteCharE5QChar@ABI_4_0 4:4.6.1
 _ZN6Okteta16ByteArrayRowView18setByteTypeColoredEb@ABI_4_0 4:4.6.1
 _ZN6Okteta16ByteArrayRowView19setByteSpacingWidthEi@ABI_4_0 4:4.6.1
 _ZN6Okteta16ByteArrayRowView19setNoOfGroupedBytesEi@ABI_4_0 4:4.6.1
 _ZN6Okteta16ByteArrayRowView19setShowsNonprintingEb@ABI_4_0 4:4.6.1
 _ZN6Okteta16ByteArrayRowView20setGroupSpacingWidthEi@ABI_4_0 4:4.6.1
 _ZN6Okteta16ByteArrayRowViewC1EP7QWidget@ABI_4_0 4:4.6.1
 _ZN6Okteta16ByteArrayRowViewC2EP7QWidget@ABI_4_0 4:4.6.1
 _ZN6Okteta16ByteArrayRowViewD0Ev@ABI_4_0 4:4.6.1
 _ZN6Okteta16ByteArrayRowViewD1Ev@ABI_4_0 4:4.6.1
 _ZN6Okteta16ByteArrayRowViewD2Ev@ABI_4_0 4:4.6.1
 _ZN6Okteta19ByteArrayColumnView11changeEventEP6QEvent@ABI_4_0 4:4.6.1
 _ZN6Okteta19ByteArrayColumnView11qt_metacallEN11QMetaObject4CallEiPPv@ABI_4_0 4:4.6.1
 _ZN6Okteta19ByteArrayColumnView11qt_metacastEPKc@ABI_4_0 4:4.6.1
 _ZN6Okteta19ByteArrayColumnView13renderColumnsEP8QPainteriiii@ABI_4_0 4:4.6.1
 _ZN6Okteta19ByteArrayColumnView13setCharCodingENS_21AbstractByteArrayView10CharCodingE@ABI_4_0 4:4.6.1
 _ZN6Okteta19ByteArrayColumnView13setCharCodingERK7QString@ABI_4_0 4:4.6.1
 _ZN6Okteta19ByteArrayColumnView14setValueCodingENS_21AbstractByteArrayView11ValueCodingE@ABI_4_0 4:4.6.1
 _ZN6Okteta19ByteArrayColumnView16setBufferSpacingEiii@ABI_4_0 4:4.6.1
 _ZN6Okteta19ByteArrayColumnView16setUndefinedCharE5QChar@ABI_4_0 4:4.6.1
 _ZN6Okteta19ByteArrayColumnView16staticMetaObjectE@ABI_4_0 4:4.6.1
 _ZN6Okteta19ByteArrayColumnView17setBinaryGapWidthEi@ABI_4_0 4:4.6.1
 _ZN6Okteta19ByteArrayColumnView17setByteArrayModelEPNS_22AbstractByteArrayModelE@ABI_4_0 4:4.6.1
 _ZN6Okteta19ByteArrayColumnView17setSubstituteCharE5QChar@ABI_4_0 4:4.6.1
 _ZN6Okteta19ByteArrayColumnView18setByteTypeColoredEb@ABI_4_0 4:4.6.1
 _ZN6Okteta19ByteArrayColumnView19setByteSpacingWidthEi@ABI_4_0 4:4.6.1
 _ZN6Okteta19ByteArrayColumnView19setNoOfGroupedBytesEi@ABI_4_0 4:4.6.1
 _ZN6Okteta19ByteArrayColumnView19setShowsNonprintingEb@ABI_4_0 4:4.6.1
 _ZN6Okteta19ByteArrayColumnView20setGroupSpacingWidthEi@ABI_4_0 4:4.6.1
 _ZN6Okteta19ByteArrayColumnViewC1EP7QWidget@ABI_4_0 4:4.6.1
 _ZN6Okteta19ByteArrayColumnViewC2EP7QWidget@ABI_4_0 4:4.6.1
 _ZN6Okteta19ByteArrayColumnViewD0Ev@ABI_4_0 4:4.6.1
 _ZN6Okteta19ByteArrayColumnViewD1Ev@ABI_4_0 4:4.6.1
 _ZN6Okteta19ByteArrayColumnViewD2Ev@ABI_4_0 4:4.6.1
 _ZN6Okteta19WidgetColumnStylistC1EP7QWidget@ABI_4_0 4:4.6.1
 _ZN6Okteta19WidgetColumnStylistC2EP7QWidget@ABI_4_0 4:4.6.1
 _ZN6Okteta19WidgetColumnStylistD0Ev@ABI_4_0 4:4.6.1
 _ZN6Okteta19WidgetColumnStylistD1Ev@ABI_4_0 4:4.6.1
 _ZN6Okteta19WidgetColumnStylistD2Ev@ABI_4_0 4:4.6.1
 _ZN6Okteta20BorderColumnRenderer12renderColumnEP8QPainterRKN3KDE11NumberRangeIiiEES7_@ABI_4_0 4:4.6.1
 _ZN6Okteta20BorderColumnRenderer16renderBorderLineEP8QPainterRKN3KDE11NumberRangeIiiEES7_@ABI_4_0 4:4.6.1
 _ZN6Okteta20BorderColumnRenderer17renderEmptyColumnEP8QPainterRKN3KDE11NumberRangeIiiEES7_@ABI_4_0 4:4.6.1
 _ZN6Okteta20BorderColumnRendererC1EPNS_21AbstractColumnStylistEbb@ABI_4_0 4:4.6.1
 _ZN6Okteta20BorderColumnRendererC2EPNS_21AbstractColumnStylistEbb@ABI_4_0 4:4.6.1
 _ZN6Okteta20BorderColumnRendererD0Ev@ABI_4_0 4:4.6.1
 _ZN6Okteta20BorderColumnRendererD1Ev@ABI_4_0 4:4.6.1
 _ZN6Okteta20BorderColumnRendererD2Ev@ABI_4_0 4:4.6.1
 _ZN6Okteta20ByteArrayTableLayout14setStartOffsetEi@ABI_4_0 4:4.6.1
 _ZN6Okteta20ByteArrayTableLayout18setByteArrayOffsetEi@ABI_4_0 4:4.6.1
 _ZN6Okteta20ByteArrayTableLayout18setFirstLineOffsetEi@ABI_4_0 4:4.6.1
 _ZN6Okteta20ByteArrayTableLayout19setNoOfBytesPerLineEi@ABI_4_0 4:4.6.1
 _ZN6Okteta20ByteArrayTableLayout19setNoOfLinesPerPageEi@ABI_4_0 4:4.6.1
 _ZN6Okteta20ByteArrayTableLayout7calcEndEv@ABI_4_0 4:4.6.1
 _ZN6Okteta20ByteArrayTableLayout9calcStartEv@ABI_4_0 4:4.6.1
 _ZN6Okteta20ByteArrayTableLayout9setLengthEi@ABI_4_0 4:4.6.1
 _ZN6Okteta20ByteArrayTableLayoutC1Eiiiii@ABI_4_0 4:4.6.1
 _ZN6Okteta20ByteArrayTableLayoutC2Eiiiii@ABI_4_0 4:4.6.1
 _ZN6Okteta20ByteArrayTableLayoutD1Ev@ABI_4_0 4:4.6.1
 _ZN6Okteta20ByteArrayTableLayoutD2Ev@ABI_4_0 4:4.6.1
 _ZN6Okteta20ByteArrayTableRanges10setMarkingERKN3KDE11NumberRangeIiiEE@ABI_4_0 4:4.6.1
 _ZN6Okteta20ByteArrayTableRanges12setSelectionERKN3KDE11NumberRangeIiiEE@ABI_4_0 4:4.6.1
 _ZN6Okteta20ByteArrayTableRanges14adaptToChangesERKNS_22ArrayChangeMetricsListEi@ABI_4_0 4:4.6.1
 _ZN6Okteta20ByteArrayTableRanges15addChangedRangeERKN3KDE11NumberRangeIiiEE@ABI_4_0 4:4.6.1
 _ZN6Okteta20ByteArrayTableRanges15addChangedRangeERKNS_10CoordRangeE@ABI_4_0 4:4.6.1
 _ZN6Okteta20ByteArrayTableRanges15addChangedRangeEii@ABI_4_0 4:4.6.1
 _ZN6Okteta20ByteArrayTableRanges15removeSelectionEi@ABI_4_0 4:4.6.1
 _ZN6Okteta20ByteArrayTableRanges15setSelectionEndEi@ABI_4_0 4:4.6.1
 _ZN6Okteta20ByteArrayTableRanges17setSelectionStartEi@ABI_4_0 4:4.6.1
 _ZN6Okteta20ByteArrayTableRanges18resetChangedRangesEv@ABI_4_0 4:4.6.1
 _ZN6Okteta20ByteArrayTableRanges21addChangedOffsetLinesERKN3KDE11NumberRangeIiiEE@ABI_4_0 4:4.6.1
 _ZN6Okteta20ByteArrayTableRanges21setFirstWordSelectionERKN3KDE11NumberRangeIiiEE@ABI_4_0 4:4.6.1
 _ZN6Okteta20ByteArrayTableRanges23removeFurtherSelectionsEv@ABI_4_0 4:4.6.1
 _ZN6Okteta20ByteArrayTableRanges26ensureWordSelectionForwardEb@ABI_4_0 4:4.6.1
 _ZN6Okteta20ByteArrayTableRanges5resetEv@ABI_4_0 4:4.6.1
 _ZN6Okteta20ByteArrayTableRangesC1EPNS_20ByteArrayTableLayoutE@ABI_4_0 4:4.6.1
 _ZN6Okteta20ByteArrayTableRangesC2EPNS_20ByteArrayTableLayoutE@ABI_4_0 4:4.6.1
 _ZN6Okteta20ByteArrayTableRangesD1Ev@ABI_4_0 4:4.6.1
 _ZN6Okteta20ByteArrayTableRangesD2Ev@ABI_4_0 4:4.6.1
 _ZN6Okteta20OffsetColumnRenderer10renderLineEP8QPainteri@ABI_4_0 4:4.6.1
 _ZN6Okteta20OffsetColumnRenderer12renderColumnEP8QPainterRKN3KDE11NumberRangeIiiEES7_@ABI_4_0 4:4.6.1
 _ZN6Okteta20OffsetColumnRenderer14renderNextLineEP8QPainter@ABI_4_0 4:4.6.1
 _ZN6Okteta20OffsetColumnRenderer14setFontMetricsERK12QFontMetrics@ABI_4_0 4:4.6.1
 _ZN6Okteta20OffsetColumnRenderer15renderFirstLineEP8QPainterRKN3KDE11NumberRangeIiiEEi@ABI_4_0 4:4.6.1
 _ZN6Okteta20OffsetColumnRenderer17renderEmptyColumnEP8QPainterRKN3KDE11NumberRangeIiiEES7_@ABI_4_0 4:4.6.1
 _ZN6Okteta20OffsetColumnRenderer22renderColumnBackgroundEP8QPainterRKN3KDE11NumberRangeIiiEES7_@ABI_4_0 4:4.6.1
 _ZN6Okteta20OffsetColumnRenderer7recalcXEv@ABI_4_0 4:4.6.1
 _ZN6Okteta20OffsetColumnRenderer9setFormatENS_12OffsetFormat6FormatE@ABI_4_0 4:4.6.1
 _ZN6Okteta20OffsetColumnRendererC1EPNS_21AbstractColumnStylistEPNS_20ByteArrayTableLayoutENS_12OffsetFormat6FormatE@ABI_4_0 4:4.6.1
 _ZN6Okteta20OffsetColumnRendererC2EPNS_21AbstractColumnStylistEPNS_20ByteArrayTableLayoutENS_12OffsetFormat6FormatE@ABI_4_0 4:4.6.1
 _ZN6Okteta20OffsetColumnRendererD0Ev@ABI_4_0 4:4.6.1
 _ZN6Okteta20OffsetColumnRendererD1Ev@ABI_4_0 4:4.6.1
 _ZN6Okteta20OffsetColumnRendererD2Ev@ABI_4_0 4:4.6.1
 _ZN6Okteta21AbstractByteArrayView10selectWordEi@ABI_4_0 4:4.6.1
 _ZN6Okteta21AbstractByteArrayView10setMarkingERKN3KDE11NumberRangeIiiEE@ABI_4_0 4:4.6.1
 _ZN6Okteta21AbstractByteArrayView10setMarkingEii@ABI_4_0 4:4.6.1
 _ZN6Okteta21AbstractByteArrayView10stopCursorEv@ABI_4_0 4:4.6.1
 _ZN6Okteta21AbstractByteArrayView10wheelEventEP11QWheelEvent@ABI_4_0 4:4.6.1
 _ZN6Okteta21AbstractByteArrayView11changeEventEP6QEvent@ABI_4_0 4:4.6.1
 _ZN6Okteta21AbstractByteArrayView11pauseCursorEv@ABI_4_0 4:4.6.1
 _ZN6Okteta21AbstractByteArrayView11placeCursorERK6QPoint@ABI_4_0 4:4.6.1
 _ZN6Okteta21AbstractByteArrayView11qt_metacallEN11QMetaObject4CallEiPPv@ABI_4_0 4:4.6.1
 _ZN6Okteta21AbstractByteArrayView11qt_metacastEPKc@ABI_4_0 4:4.6.1
 _ZN6Okteta21AbstractByteArrayView11resizeEventEP12QResizeEvent@ABI_4_0 4:4.6.1
 _ZN6Okteta21AbstractByteArrayView11setModifiedEb@ABI_4_0 4:4.6.1
 _ZN6Okteta21AbstractByteArrayView11setReadOnlyEb@ABI_4_0 4:4.6.1
 _ZN6Okteta21AbstractByteArrayView11startCursorEv@ABI_4_0 4:4.6.1
 _ZN6Okteta21AbstractByteArrayView12cutAvailableEb@ABI_4_0 4:4.6.1
 _ZN6Okteta21AbstractByteArrayView12focusChangedEb@ABI_4_0 4:4.6.1
 _ZN6Okteta21AbstractByteArrayView12focusInEventEP11QFocusEvent@ABI_4_0 4:4.6.1
 _ZN6Okteta21AbstractByteArrayView12setNoOfLinesEi@ABI_4_0 4:4.6.1
 _ZN6Okteta21AbstractByteArrayView12setSelectionERKN3KDE11NumberRangeIiiEE@ABI_4_0 4:4.6.1
 _ZN6Okteta21AbstractByteArrayView12setSelectionEii@ABI_4_0 4:4.6.1
 _ZN6Okteta21AbstractByteArrayView12setZoomLevelEd@ABI_4_0 4:4.6.1
 _ZN6Okteta21AbstractByteArrayView13copyAvailableEb@ABI_4_0 4:4.6.1
 _ZN6Okteta21AbstractByteArrayView13doubleClickedEi@ABI_4_0 4:4.6.1
 _ZN6Okteta21AbstractByteArrayView13dragMoveEventEP14QDragMoveEvent@ABI_4_0 4:4.6.1
 _ZN6Okteta21AbstractByteArrayView13ensureVisibleERKN3KDE11NumberRangeIiiEEb@ABI_4_0 4:4.6.1
 _ZN6Okteta21AbstractByteArrayView13focusOutEventEP11QFocusEvent@ABI_4_0 4:4.6.1
 _ZN6Okteta21AbstractByteArrayView13keyPressEventEP9QKeyEvent@ABI_4_0 4:4.6.1
 _ZN6Okteta21AbstractByteArrayView13unpauseCursorEv@ABI_4_0 4:4.6.1
 _ZN6Okteta21AbstractByteArrayView13updateChangedEv@ABI_4_0 4:4.6.1
 _ZN6Okteta21AbstractByteArrayView13viewportEventEP6QEvent@ABI_4_0 4:4.6.1
 _ZN6Okteta21AbstractByteArrayView14dragEnterEventEP15QDragEnterEvent@ABI_4_0 4:4.6.1
 _ZN6Okteta21AbstractByteArrayView14dragLeaveEventEP15QDragLeaveEvent@ABI_4_0 4:4.6.1
 _ZN6Okteta21AbstractByteArrayView14finishByteEditEv@ABI_4_0 4:4.6.1
 _ZN6Okteta21AbstractByteArrayView14mouseMoveEventEP11QMouseEvent@ABI_4_0 4:4.6.1
 _ZN6Okteta21AbstractByteArrayView14setLayoutStyleENS0_11LayoutStyleE@ABI_4_0 4:4.6.1
 _ZN6Okteta21AbstractByteArrayView14setStartOffsetEi@ABI_4_0 4:4.6.1
 _ZN6Okteta21AbstractByteArrayView15mousePressEventEP11QMouseEvent@ABI_4_0 4:4.6.1
 _ZN6Okteta21AbstractByteArrayView15readOnlyChangedEb@ABI_4_0 4:4.6.1
 _ZN6Okteta21AbstractByteArrayView15setActiveCodingENS0_12CodingTypeIdE@ABI_4_0 4:4.6.1
 _ZN6Okteta21AbstractByteArrayView16charCodecChangedERK7QString@ABI_4_0 4:4.6.1
 _ZN6Okteta21AbstractByteArrayView16selectionChangedERKN3KDE11NumberRangeIiiEE@ABI_4_0 4:4.6.1
 _ZN6Okteta21AbstractByteArrayView16setOverwriteModeEb@ABI_4_0 4:4.6.1
 _ZN6Okteta21AbstractByteArrayView16setOverwriteOnlyEb@ABI_4_0 4:4.6.1
 _ZN6Okteta21AbstractByteArrayView16staticMetaObjectE@ABI_4_0 4:4.6.1
 _ZN6Okteta21AbstractByteArrayView17mouseReleaseEventEP11QMouseEvent@ABI_4_0 4:4.6.1
 _ZN6Okteta21AbstractByteArrayView17setByteArrayModelEPNS_22AbstractByteArrayModelE@ABI_4_0 4:4.6.1
 _ZN6Okteta21AbstractByteArrayView17setCursorPositionEib@ABI_4_0 4:4.6.1
 _ZN6Okteta21AbstractByteArrayView17setVisibleCodingsEi@ABI_4_0 4:4.6.1
 _ZN6Okteta21AbstractByteArrayView18pasteFromClipboardEN10QClipboard4ModeE@ABI_4_0 4:4.6.1
 _ZN6Okteta21AbstractByteArrayView18removeSelectedDataEv@ABI_4_0 4:4.6.1
 _ZN6Okteta21AbstractByteArrayView18setFirstLineOffsetEi@ABI_4_0 4:4.6.1
 _ZN6Okteta21AbstractByteArrayView18setTabChangesFocusEb@ABI_4_0 4:4.6.1
 _ZN6Okteta21AbstractByteArrayView18toggleOffsetColumnEb@ABI_4_0 4:4.6.1
 _ZN6Okteta21AbstractByteArrayView18valueCodingChangedEi@ABI_4_0 4:4.6.1
 _ZN6Okteta21AbstractByteArrayView19ensureCursorVisibleEv@ABI_4_0 4:4.6.1
 _ZN6Okteta21AbstractByteArrayView19setNoOfBytesPerLineEi@ABI_4_0 4:4.6.1
 _ZN6Okteta21AbstractByteArrayView20emitSelectionSignalsEv@ABI_4_0 4:4.6.1
 _ZN6Okteta21AbstractByteArrayView20overwriteModeChangedEb@ABI_4_0 4:4.6.1
 _ZN6Okteta21AbstractByteArrayView21cursorPositionChangedEi@ABI_4_0 4:4.6.1
 _ZN6Okteta21AbstractByteArrayView21mouseDoubleClickEventEP11QMouseEvent@ABI_4_0 4:4.6.1
 _ZN6Okteta21AbstractByteArrayView22hasSelectedDataChangedEb@ABI_4_0 4:4.6.1
 _ZN6Okteta21AbstractByteArrayView26setSelectionCursorPositionEi@ABI_4_0 4:4.6.1
 _ZN6Okteta21AbstractByteArrayView3cutEv@ABI_4_0 4:4.6.1
 _ZN6Okteta21AbstractByteArrayView4copyEv@ABI_4_0 4:4.6.1
 _ZN6Okteta21AbstractByteArrayView5eventEP6QEvent@ABI_4_0 4:4.6.1
 _ZN6Okteta21AbstractByteArrayView5pasteEv@ABI_4_0 4:4.6.1
 _ZN6Okteta21AbstractByteArrayView6insertERK10QByteArray@ABI_4_0 4:4.6.1
 _ZN6Okteta21AbstractByteArrayView6unZoomEv@ABI_4_0 4:4.6.1
 _ZN6Okteta21AbstractByteArrayView6zoomInEi@ABI_4_0 4:4.6.1
 _ZN6Okteta21AbstractByteArrayView6zoomInEv@ABI_4_0 4:4.6.1
 _ZN6Okteta21AbstractByteArrayView6zoomToEi@ABI_4_0 4:4.6.1
 _ZN6Okteta21AbstractByteArrayView7clickedEi@ABI_4_0 4:4.6.1
 _ZN6Okteta21AbstractByteArrayView7zoomOutEi@ABI_4_0 4:4.6.1
 _ZN6Okteta21AbstractByteArrayView7zoomOutEv@ABI_4_0 4:4.6.1
 _ZN6Okteta21AbstractByteArrayView9dropEventEP10QDropEvent@ABI_4_0 4:4.6.1
 _ZN6Okteta21AbstractByteArrayView9pasteDataEPK9QMimeData@ABI_4_0 4:4.6.1
 _ZN6Okteta21AbstractByteArrayView9selectAllEb@ABI_4_0 4:4.6.1
 _ZN6Okteta21AbstractByteArrayView9showEventEP10QShowEvent@ABI_4_0 4:4.6.1
 _ZN6Okteta21AbstractByteArrayViewC1EPNS_28AbstractByteArrayViewPrivateEP7QWidget@ABI_4_0 4:4.6.1
 _ZN6Okteta21AbstractByteArrayViewC2EPNS_28AbstractByteArrayViewPrivateEP7QWidget@ABI_4_0 4:4.6.1
 _ZN6Okteta21AbstractByteArrayViewD0Ev@ABI_4_0 4:4.6.1
 _ZN6Okteta21AbstractByteArrayViewD1Ev@ABI_4_0 4:4.6.1
 _ZN6Okteta21AbstractByteArrayViewD2Ev@ABI_4_0 4:4.6.1
 _ZN6Okteta21AbstractColumnStylistC1EPNS_28AbstractColumnStylistPrivateE@ABI_4_0 4:4.6.1
 _ZN6Okteta21AbstractColumnStylistC1Ev@ABI_4_0 4:4.6.1
 _ZN6Okteta21AbstractColumnStylistC2EPNS_28AbstractColumnStylistPrivateE@ABI_4_0 4:4.6.1
 _ZN6Okteta21AbstractColumnStylistC2Ev@ABI_4_0 4:4.6.1
 _ZN6Okteta21AbstractColumnStylistD0Ev@ABI_4_0 4:4.6.1
 _ZN6Okteta21AbstractColumnStylistD1Ev@ABI_4_0 4:4.6.1
 _ZN6Okteta21AbstractColumnStylistD2Ev@ABI_4_0 4:4.6.1
 _ZN6Okteta22AbstractColumnRenderer10setVisibleEb@ABI_4_0 4:4.6.1
 _ZN6Okteta22AbstractColumnRenderer12renderColumnEP8QPainterRKN3KDE11NumberRangeIiiEES7_@ABI_4_0 4:4.6.1
 _ZN6Okteta22AbstractColumnRenderer13setLineHeightEi@ABI_4_0 4:4.6.1
 _ZN6Okteta22AbstractColumnRenderer14renderNextLineEP8QPainter@ABI_4_0 4:4.6.1
 _ZN6Okteta22AbstractColumnRenderer15renderFirstLineEP8QPainterRKN3KDE11NumberRangeIiiEEi@ABI_4_0 4:4.6.1
 _ZN6Okteta22AbstractColumnRenderer17renderEmptyColumnEP8QPainterRKN3KDE11NumberRangeIiiEES7_@ABI_4_0 4:4.6.1
 _ZN6Okteta22AbstractColumnRenderer4setXEi@ABI_4_0 4:4.6.1
 _ZN6Okteta22AbstractColumnRenderer8setWidthEi@ABI_4_0 4:4.6.1
 _ZN6Okteta22AbstractColumnRendererC1EPNS_21AbstractColumnStylistE@ABI_4_0 4:4.6.1
 _ZN6Okteta22AbstractColumnRendererC2EPNS_21AbstractColumnStylistE@ABI_4_0 4:4.6.1
 _ZN6Okteta22AbstractColumnRendererD0Ev@ABI_4_0 4:4.6.1
 _ZN6Okteta22AbstractColumnRendererD1Ev@ABI_4_0 4:4.6.1
 _ZN6Okteta22AbstractColumnRendererD2Ev@ABI_4_0 4:4.6.1
 (arch=kfreebsd-amd64 kfreebsd-i386)_ZN6Okteta22BookmarksConstIteratorD1Ev@ABI_4_0 4:4.7.4
 (arch=kfreebsd-amd64 kfreebsd-i386)_ZN6Okteta22BookmarksConstIteratorD2Ev@ABI_4_0 4:4.7.4
 _ZN6Okteta26ByteArrayRowColumnRenderer10renderByteEP8QPainteriNS_21AbstractByteArrayView12CodingTypeIdE@ABI_4_0 4:4.6.1
 _ZN6Okteta26ByteArrayRowColumnRenderer10setSpacingEiii@ABI_4_0 4:4.6.1
 _ZN6Okteta26ByteArrayRowColumnRenderer11renderPlainEP8QPainterRKN3KDE11NumberRangeIiiEEi@ABI_4_0 4:4.6.1
 _ZN6Okteta26ByteArrayRowColumnRenderer11renderRangeEP8QPainterRK6QBrushRKN3KDE11NumberRangeIiiEEi@ABI_4_0 4:4.6.1
 _ZN6Okteta26ByteArrayRowColumnRenderer12renderCursorEP8QPainteriNS_21AbstractByteArrayView12CodingTypeIdE@ABI_4_0 4:4.6.1
 _ZN6Okteta26ByteArrayRowColumnRenderer12resetXBufferEv@ABI_4_0 4:4.6.1
 _ZN6Okteta26ByteArrayRowColumnRenderer13renderMarkingEP8QPainterRKN3KDE11NumberRangeIiiEEii@ABI_4_0 4:4.6.1
 _ZN6Okteta26ByteArrayRowColumnRenderer13setValueCodecENS_11ValueCodingEPKNS_10ValueCodecE@ABI_4_0 4:4.6.1
 _ZN6Okteta26ByteArrayRowColumnRenderer14renderBookmarkEP8QPainterRK6QBrush@ABI_4_0 4:4.6.1
 _ZN6Okteta26ByteArrayRowColumnRenderer14renderNextLineEP8QPainter@ABI_4_0 4:4.6.1
 _ZN6Okteta26ByteArrayRowColumnRenderer14setFontMetricsERK12QFontMetrics@ABI_4_0 4:4.6.1
 _ZN6Okteta26ByteArrayRowColumnRenderer15recalcByteWidthEv@ABI_4_0 4:4.6.1
 _ZN6Okteta26ByteArrayRowColumnRenderer15renderFirstLineEP8QPainterRKN3KDE11NumberRangeIiiEEi@ABI_4_0 4:4.6.1
 _ZN6Okteta26ByteArrayRowColumnRenderer15renderSelectionEP8QPainterRKN3KDE11NumberRangeIiiEEii@ABI_4_0 4:4.6.1
 _ZN6Okteta26ByteArrayRowColumnRenderer16prepareRenderingERKN3KDE11NumberRangeIiiEE@ABI_4_0 4:4.6.1
 _ZN6Okteta26ByteArrayRowColumnRenderer16renderEditedByteEP8QPainterhRK7QString@ABI_4_0 4:4.6.1
 _ZN6Okteta26ByteArrayRowColumnRenderer16renderFramedByteEP8QPainteriNS_21AbstractByteArrayView12CodingTypeIdENS0_10FrameStyleE@ABI_4_0 4:4.6.1
 _ZN6Okteta26ByteArrayRowColumnRenderer17renderSpaceBehindEP8QPainterRK6QBrushi@ABI_4_0 4:4.6.1
 _ZN6Okteta26ByteArrayRowColumnRenderer17setBinaryGapWidthEi@ABI_4_0 4:4.6.1
 _ZN6Okteta26ByteArrayRowColumnRenderer17setVisibleCodingsEi@ABI_4_0 4:4.6.1
 _ZN6Okteta26ByteArrayRowColumnRenderer19renderLinePositionsEP8QPainteriRKN3KDE11NumberRangeIiiEE@ABI_4_0 4:4.6.1
 _ZN6Okteta26ByteArrayRowColumnRenderer19setByteSpacingWidthEi@ABI_4_0 4:4.6.1
 _ZN6Okteta26ByteArrayRowColumnRenderer19setNoOfGroupedBytesEi@ABI_4_0 4:4.6.1
 _ZN6Okteta26ByteArrayRowColumnRenderer20setGroupSpacingWidthEi@ABI_4_0 4:4.6.1
 _ZN6Okteta26ByteArrayRowColumnRenderer26renderSelectionSpaceBehindEP8QPainteri@ABI_4_0 4:4.6.1
 _ZN6Okteta26ByteArrayRowColumnRenderer3setEPNS_22AbstractByteArrayModelE@ABI_4_0 4:4.6.1
 _ZN6Okteta26ByteArrayRowColumnRenderer7recalcXEv@ABI_4_0 4:4.6.1
 _ZN6Okteta26ByteArrayRowColumnRendererC1EPNS_21AbstractColumnStylistEPNS_22AbstractByteArrayModelEPNS_20ByteArrayTableLayoutEPNS_20ByteArrayTableRangesE@ABI_4_0 4:4.6.1
 _ZN6Okteta26ByteArrayRowColumnRendererC2EPNS_21AbstractColumnStylistEPNS_22AbstractByteArrayModelEPNS_20ByteArrayTableLayoutEPNS_20ByteArrayTableRangesE@ABI_4_0 4:4.6.1
 _ZN6Okteta26ByteArrayRowColumnRendererD0Ev@ABI_4_0 4:4.6.1
 _ZN6Okteta26ByteArrayRowColumnRendererD1Ev@ABI_4_0 4:4.6.1
 _ZN6Okteta26ByteArrayRowColumnRendererD2Ev@ABI_4_0 4:4.6.1
 _ZN6Okteta27CharByteArrayColumnRendererC1EPNS_21AbstractColumnStylistEPNS_22AbstractByteArrayModelEPNS_20ByteArrayTableLayoutEPNS_20ByteArrayTableRangesE@ABI_4_0 4:4.6.1
 _ZN6Okteta27CharByteArrayColumnRendererC2EPNS_21AbstractColumnStylistEPNS_22AbstractByteArrayModelEPNS_20ByteArrayTableLayoutEPNS_20ByteArrayTableRangesE@ABI_4_0 4:4.6.1
 _ZN6Okteta27CharByteArrayColumnRendererD0Ev@ABI_4_0 4:4.6.1
 _ZN6Okteta27CharByteArrayColumnRendererD1Ev@ABI_4_0 4:4.6.1
 _ZN6Okteta27CharByteArrayColumnRendererD2Ev@ABI_4_0 4:4.6.1
 _ZN6Okteta28ValueByteArrayColumnRenderer13setValueCodecENS_11ValueCodingEPKNS_10ValueCodecE@ABI_4_0 4:4.6.1
 _ZN6Okteta28ValueByteArrayColumnRenderer15recalcByteWidthEv@ABI_4_0 4:4.6.1
 _ZN6Okteta28ValueByteArrayColumnRenderer16renderEditedByteEP8QPainterhRK7QString@ABI_4_0 4:4.6.1
 _ZN6Okteta28ValueByteArrayColumnRenderer17setBinaryGapWidthEi@ABI_4_0 4:4.6.1
 _ZN6Okteta28ValueByteArrayColumnRendererC1EPNS_21AbstractColumnStylistEPNS_22AbstractByteArrayModelEPNS_20ByteArrayTableLayoutEPNS_20ByteArrayTableRangesE@ABI_4_0 4:4.6.1
 _ZN6Okteta28ValueByteArrayColumnRendererC2EPNS_21AbstractColumnStylistEPNS_22AbstractByteArrayModelEPNS_20ByteArrayTableLayoutEPNS_20ByteArrayTableRangesE@ABI_4_0 4:4.6.1
 _ZN6Okteta28ValueByteArrayColumnRendererD0Ev@ABI_4_0 4:4.6.1
 _ZN6Okteta28ValueByteArrayColumnRendererD1Ev@ABI_4_0 4:4.6.1
 _ZN6Okteta28ValueByteArrayColumnRendererD2Ev@ABI_4_0 4:4.6.1
 _ZN6Okteta31AbstractByteArrayColumnRenderer10renderByteEP8QPainteri@ABI_4_0 4:4.6.1
 _ZN6Okteta31AbstractByteArrayColumnRenderer10setSpacingEiii@ABI_4_0 4:4.6.1
 _ZN6Okteta31AbstractByteArrayColumnRenderer11renderPlainEP8QPainterRKN3KDE11NumberRangeIiiEEi@ABI_4_0 4:4.6.1
 _ZN6Okteta31AbstractByteArrayColumnRenderer11renderRangeEP8QPainterRK6QBrushRKN3KDE11NumberRangeIiiEEi@ABI_4_0 4:4.6.1
 _ZN6Okteta31AbstractByteArrayColumnRenderer12renderCursorEP8QPainteri@ABI_4_0 4:4.6.1
 _ZN6Okteta31AbstractByteArrayColumnRenderer12resetXBufferEv@ABI_4_0 4:4.6.1
 _ZN6Okteta31AbstractByteArrayColumnRenderer13renderMarkingEP8QPainterRKN3KDE11NumberRangeIiiEEii@ABI_4_0 4:4.6.1
 _ZN6Okteta31AbstractByteArrayColumnRenderer14renderBookmarkEP8QPainterRK6QBrush@ABI_4_0 4:4.6.1
 _ZN6Okteta31AbstractByteArrayColumnRenderer14renderNextLineEP8QPainter@ABI_4_0 4:4.6.1
 _ZN6Okteta31AbstractByteArrayColumnRenderer14setFontMetricsERK12QFontMetrics@ABI_4_0 4:4.6.1
 _ZN6Okteta31AbstractByteArrayColumnRenderer15recalcByteWidthEv@ABI_4_0 4:4.6.1
 _ZN6Okteta31AbstractByteArrayColumnRenderer15renderFirstLineEP8QPainterRKN3KDE11NumberRangeIiiEEi@ABI_4_0 4:4.6.1
 _ZN6Okteta31AbstractByteArrayColumnRenderer15renderSelectionEP8QPainterRKN3KDE11NumberRangeIiiEEii@ABI_4_0 4:4.6.1
 _ZN6Okteta31AbstractByteArrayColumnRenderer16prepareRenderingERKN3KDE11NumberRangeIiiEE@ABI_4_0 4:4.6.1
 _ZN6Okteta31AbstractByteArrayColumnRenderer16renderFramedByteEP8QPainteriNS0_10FrameStyleE@ABI_4_0 4:4.6.1
 _ZN6Okteta31AbstractByteArrayColumnRenderer17renderSpaceBehindEP8QPainterRK6QBrushi@ABI_4_0 4:4.6.1
 _ZN6Okteta31AbstractByteArrayColumnRenderer19renderLinePositionsEP8QPainteriRKN3KDE11NumberRangeIiiEE@ABI_4_0 4:4.6.1
 _ZN6Okteta31AbstractByteArrayColumnRenderer19setByteSpacingWidthEi@ABI_4_0 4:4.6.1
 _ZN6Okteta31AbstractByteArrayColumnRenderer19setNoOfGroupedBytesEi@ABI_4_0 4:4.6.1
 _ZN6Okteta31AbstractByteArrayColumnRenderer20setGroupSpacingWidthEi@ABI_4_0 4:4.6.1
 _ZN6Okteta31AbstractByteArrayColumnRenderer26renderSelectionSpaceBehindEP8QPainteri@ABI_4_0 4:4.6.1
 _ZN6Okteta31AbstractByteArrayColumnRenderer3setEPNS_22AbstractByteArrayModelE@ABI_4_0 4:4.6.1
 _ZN6Okteta31AbstractByteArrayColumnRenderer7recalcXEv@ABI_4_0 4:4.6.1
 _ZN6Okteta31AbstractByteArrayColumnRendererC1EPNS_21AbstractColumnStylistEPNS_22AbstractByteArrayModelEPNS_20ByteArrayTableLayoutEPNS_20ByteArrayTableRangesE@ABI_4_0 4:4.6.1
 _ZN6Okteta31AbstractByteArrayColumnRendererC2EPNS_21AbstractColumnStylistEPNS_22AbstractByteArrayModelEPNS_20ByteArrayTableLayoutEPNS_20ByteArrayTableRangesE@ABI_4_0 4:4.6.1
 _ZN6Okteta31AbstractByteArrayColumnRendererD0Ev@ABI_4_0 4:4.6.1
 _ZN6Okteta31AbstractByteArrayColumnRendererD1Ev@ABI_4_0 4:4.6.1
 _ZN6Okteta31AbstractByteArrayColumnRendererD2Ev@ABI_4_0 4:4.6.1
 _ZNK6Okteta11ColumnsView10lineHeightEv@ABI_4_0 4:4.6.1
 _ZNK6Okteta11ColumnsView10metaObjectEv@ABI_4_0 4:4.6.1
 _ZNK6Okteta11ColumnsView12columnsWidthEv@ABI_4_0 4:4.6.1
 _ZNK6Okteta11ColumnsView12visibleLinesERKN3KDE11NumberRangeIiiEE@ABI_4_0 4:4.6.1
 _ZNK6Okteta11ColumnsView12visibleLinesEv@ABI_4_0 4:4.6.1
 _ZNK6Okteta11ColumnsView12visibleWidthEv@ABI_4_0 4:4.6.1
 _ZNK6Okteta11ColumnsView13columnsHeightEv@ABI_4_0 4:4.6.1
 _ZNK6Okteta11ColumnsView13visibleHeightEv@ABI_4_0 4:4.6.1
 _ZNK6Okteta11ColumnsView13yOffsetOfLineEi@ABI_4_0 4:4.6.1
 _ZNK6Okteta11ColumnsView16noOfLinesPerPageEv@ABI_4_0 4:4.6.1
 _ZNK6Okteta11ColumnsView17viewportToColumnsERK6QPoint@ABI_4_0 4:4.6.1
 _ZNK6Okteta11ColumnsView6lineAtEi@ABI_4_0 4:4.6.1
 _ZNK6Okteta11ColumnsView7xOffsetEv@ABI_4_0 4:4.6.1
 _ZNK6Okteta11ColumnsView7yOffsetEv@ABI_4_0 4:4.6.1
 _ZNK6Okteta11ColumnsView9noOfLinesEv@ABI_4_0 4:4.6.1
 _ZNK6Okteta16ByteArrayRowView10metaObjectEv@ABI_4_0 4:4.6.1
 _ZNK6Okteta16ByteArrayRowView13undefinedCharEv@ABI_4_0 4:4.6.1
 _ZNK6Okteta16ByteArrayRowView14binaryGapWidthEv@ABI_4_0 4:4.6.1
 _ZNK6Okteta16ByteArrayRowView14substituteCharEv@ABI_4_0 4:4.6.1
 _ZNK6Okteta16ByteArrayRowView15minimumSizeHintEv@ABI_4_0 4:4.6.1
 _ZNK6Okteta16ByteArrayRowView16byteSpacingWidthEv@ABI_4_0 4:4.6.1
 _ZNK6Okteta16ByteArrayRowView16noOfGroupedBytesEv@ABI_4_0 4:4.6.1
 _ZNK6Okteta16ByteArrayRowView16showsNonprintingEv@ABI_4_0 4:4.6.1
 _ZNK6Okteta16ByteArrayRowView17groupSpacingWidthEv@ABI_4_0 4:4.6.1
 _ZNK6Okteta16ByteArrayRowView17isByteTypeColoredEv@ABI_4_0 4:4.6.1
 _ZNK6Okteta19ByteArrayColumnView10metaObjectEv@ABI_4_0 4:4.6.1
 _ZNK6Okteta19ByteArrayColumnView13undefinedCharEv@ABI_4_0 4:4.6.1
 _ZNK6Okteta19ByteArrayColumnView14binaryGapWidthEv@ABI_4_0 4:4.6.1
 _ZNK6Okteta19ByteArrayColumnView14substituteCharEv@ABI_4_0 4:4.6.1
 _ZNK6Okteta19ByteArrayColumnView15minimumSizeHintEv@ABI_4_0 4:4.6.1
 _ZNK6Okteta19ByteArrayColumnView16byteSpacingWidthEv@ABI_4_0 4:4.6.1
 _ZNK6Okteta19ByteArrayColumnView16noOfGroupedBytesEv@ABI_4_0 4:4.6.1
 _ZNK6Okteta19ByteArrayColumnView16showsNonprintingEv@ABI_4_0 4:4.6.1
 _ZNK6Okteta19ByteArrayColumnView17groupSpacingWidthEv@ABI_4_0 4:4.6.1
 _ZNK6Okteta19ByteArrayColumnView17isByteTypeColoredEv@ABI_4_0 4:4.6.1
 _ZNK6Okteta19WidgetColumnStylist7paletteEv@ABI_4_0 4:4.6.1
 _ZNK6Okteta20ByteArrayTableLayout10hasContentEi@ABI_4_0 4:4.6.1
 _ZNK6Okteta20ByteArrayTableLayout11lineAtIndexEi@ABI_4_0 4:4.6.1
 _ZNK6Okteta20ByteArrayTableLayout12coordOfIndexEi@ABI_4_0 4:4.6.1
 _ZNK6Okteta20ByteArrayTableLayout12correctCoordERKNS_5CoordE@ABI_4_0 4:4.6.1
 _ZNK6Okteta20ByteArrayTableLayout12correctIndexEi@ABI_4_0 4:4.6.1
 _ZNK6Okteta20ByteArrayTableLayout12indexAtCoordERKNS_5CoordE@ABI_4_0 4:4.6.1
 _ZNK6Okteta20ByteArrayTableLayout12lineAtCIndexEi@ABI_4_0 4:4.6.1
 _ZNK6Okteta20ByteArrayTableLayout13coordOfCIndexEi@ABI_4_0 4:4.6.1
 _ZNK6Okteta20ByteArrayTableLayout13indexAtCCoordERKNS_5CoordE@ABI_4_0 4:4.6.1
 _ZNK6Okteta20ByteArrayTableLayout13linePositionsEi@ABI_4_0 4:4.6.1
 _ZNK6Okteta20ByteArrayTableLayout16lastLinePositionERKNS_5CoordE@ABI_4_0 4:4.6.1
 _ZNK6Okteta20ByteArrayTableLayout16lastLinePositionEi@ABI_4_0 4:4.6.1
 _ZNK6Okteta20ByteArrayTableLayout17firstLinePositionERKNS_5CoordE@ABI_4_0 4:4.6.1
 _ZNK6Okteta20ByteArrayTableLayout17firstLinePositionEi@ABI_4_0 4:4.6.1
 _ZNK6Okteta20ByteArrayTableLayout18atLastLinePositionERKNS_5CoordE@ABI_4_0 4:4.6.1
 _ZNK6Okteta20ByteArrayTableLayout19atFirstLinePositionERKNS_5CoordE@ABI_4_0 4:4.6.1
 _ZNK6Okteta20ByteArrayTableLayout19coordRangeOfIndizesERKN3KDE11NumberRangeIiiEE@ABI_4_0 4:4.6.1
 _ZNK6Okteta20ByteArrayTableLayout23indexAtLastLinePositionEi@ABI_4_0 4:4.6.1
 _ZNK6Okteta20ByteArrayTableLayout24indexAtCLastLinePositionEi@ABI_4_0 4:4.6.1
 _ZNK6Okteta20ByteArrayTableLayout24indexAtFirstLinePositionEi@ABI_4_0 4:4.6.1
 _ZNK6Okteta20ByteArrayTableLayout25indexAtCFirstLinePositionEi@ABI_4_0 4:4.6.1
 _ZNK6Okteta20ByteArrayTableRanges15overlapsChangesERKNS_10CoordRangeEPS1_@ABI_4_0 4:4.6.1
 _ZNK6Okteta20ByteArrayTableRanges15overlapsMarkingEiiPiS1_@ABI_4_0 4:4.6.1
 _ZNK6Okteta20ByteArrayTableRanges17overlapsSelectionEiiPiS1_@ABI_4_0 4:4.6.1
 _ZNK6Okteta20ByteArrayTableRanges18overlappingMarkingERKN3KDE11NumberRangeIiiEE@ABI_4_0 4:4.6.1
 _ZNK6Okteta20ByteArrayTableRanges25firstOverlappingSelectionERKN3KDE11NumberRangeIiiEE@ABI_4_0 4:4.6.1
 _ZNK6Okteta21AbstractByteArrayView10charCodingEv@ABI_4_0 4:4.6.1
 _ZNK6Okteta21AbstractByteArrayView10cursorRectEv@ABI_4_0 4:4.6.1
 _ZNK6Okteta21AbstractByteArrayView10isModifiedEv@ABI_4_0 4:4.6.1
 _ZNK6Okteta21AbstractByteArrayView10isReadOnlyEv@ABI_4_0 4:4.6.1
 _ZNK6Okteta21AbstractByteArrayView10metaObjectEv@ABI_4_0 4:4.6.1
 _ZNK6Okteta21AbstractByteArrayView10valueCodecEv@ABI_4_0 4:4.6.1
 _ZNK6Okteta21AbstractByteArrayView11canReadDataEPK9QMimeData@ABI_4_0 4:4.6.1
 _ZNK6Okteta21AbstractByteArrayView11layoutStyleEv@ABI_4_0 4:4.6.1
 _ZNK6Okteta21AbstractByteArrayView11startOffsetEv@ABI_4_0 4:4.6.1
 _ZNK6Okteta21AbstractByteArrayView11tableCursorEv@ABI_4_0 4:4.6.1
 _ZNK6Okteta21AbstractByteArrayView11tableRangesEv@ABI_4_0 4:4.6.1
 _ZNK6Okteta21AbstractByteArrayView11valueCodingEv@ABI_4_0 4:4.6.1
 _ZNK6Okteta21AbstractByteArrayView12activeCodingEv@ABI_4_0 4:4.6.1
 _ZNK6Okteta21AbstractByteArrayView12indexByPointERK6QPoint@ABI_4_0 4:4.6.1
 _ZNK6Okteta21AbstractByteArrayView12selectedDataEv@ABI_4_0 4:4.6.1
 _ZNK6Okteta21AbstractByteArrayView14byteArrayModelEv@ABI_4_0 4:4.6.1
 _ZNK6Okteta21AbstractByteArrayView14charCodingNameEv@ABI_4_0 4:4.6.1
 _ZNK6Okteta21AbstractByteArrayView14cursorPositionEv@ABI_4_0 4:4.6.1
 _ZNK6Okteta21AbstractByteArrayView14isCursorBehindEv@ABI_4_0 4:4.6.1
 _ZNK6Okteta21AbstractByteArrayView14visibleCodingsEv@ABI_4_0 4:4.6.1
 _ZNK6Okteta21AbstractByteArrayView15copyToClipboardEN10QClipboard4ModeE@ABI_4_0 4:4.6.1
 _ZNK6Okteta21AbstractByteArrayView15firstLineOffsetEv@ABI_4_0 4:4.6.1
 _ZNK6Okteta21AbstractByteArrayView15hasSelectedDataEv@ABI_4_0 4:4.6.1
 _ZNK6Okteta21AbstractByteArrayView15isOverwriteModeEv@ABI_4_0 4:4.6.1
 _ZNK6Okteta21AbstractByteArrayView15isOverwriteOnlyEv@ABI_4_0 4:4.6.1
 _ZNK6Okteta21AbstractByteArrayView15tabChangesFocusEv@ABI_4_0 4:4.6.1
 _ZNK6Okteta21AbstractByteArrayView16noOfBytesPerLineEv@ABI_4_0 4:4.6.1
 _ZNK6Okteta21AbstractByteArrayView19offsetColumnVisibleEv@ABI_4_0 4:4.6.1
 _ZNK6Okteta21AbstractByteArrayView19selectionAsMimeDataEv@ABI_4_0 4:4.6.1
 _ZNK6Okteta21AbstractByteArrayView6layoutEv@ABI_4_0 4:4.6.1
 _ZNK6Okteta21AbstractByteArrayView7markingEv@ABI_4_0 4:4.6.1
 _ZNK6Okteta21AbstractByteArrayView8sizeHintEv@ABI_4_0 4:4.6.1
 _ZNK6Okteta21AbstractByteArrayView9charCodecEv@ABI_4_0 4:4.6.1
 _ZNK6Okteta21AbstractByteArrayView9selectionEv@ABI_4_0 4:4.6.1
 _ZNK6Okteta21AbstractByteArrayView9zoomLevelEv@ABI_4_0 4:4.6.1
 _ZNK6Okteta22AbstractColumnRenderer10lineHeightEv@ABI_4_0 4:4.6.1
 _ZNK6Okteta22AbstractColumnRenderer12visibleWidthEv@ABI_4_0 4:4.6.1
 _ZNK6Okteta22AbstractColumnRenderer15renderBlankLineEP8QPainter@ABI_4_0 4:4.6.1
 _ZNK6Okteta22AbstractColumnRenderer15restrictToXSpanEPN3KDE11NumberRangeIiiEE@ABI_4_0 4:4.6.1
 _ZNK6Okteta22AbstractColumnRenderer1xEv@ABI_4_0 4:4.6.1
 _ZNK6Okteta22AbstractColumnRenderer5widthEv@ABI_4_0 4:4.6.1
 _ZNK6Okteta22AbstractColumnRenderer6rightXEv@ABI_4_0 4:4.6.1
 _ZNK6Okteta22AbstractColumnRenderer7stylistEv@ABI_4_0 4:4.6.1
 _ZNK6Okteta22AbstractColumnRenderer8overlapsERKN3KDE11NumberRangeIiiEE@ABI_4_0 4:4.6.1
 _ZNK6Okteta22AbstractColumnRenderer9isVisibleEv@ABI_4_0 4:4.6.1
 _ZNK6Okteta26ByteArrayRowColumnRenderer10renderCodeEP8QPainterRK7QStringRK6QColor@ABI_4_0 4:4.6.1
 _ZNK6Okteta26ByteArrayRowColumnRenderer11codingIdofYEi@ABI_4_0 4:4.6.1
 _ZNK6Okteta26ByteArrayRowColumnRenderer11yOfCodingIdENS_21AbstractByteArrayView12CodingTypeIdE@ABI_4_0 4:4.6.1
 _ZNK6Okteta26ByteArrayRowColumnRenderer14renderByteTextEP8QPainterhNS_9CharacterEiRK6QColor@ABI_4_0 4:4.6.1
 _ZNK6Okteta26ByteArrayRowColumnRenderer15linePositionOfXEi@ABI_4_0 4:4.6.1
 _ZNK6Okteta26ByteArrayRowColumnRenderer15xOfLinePositionEi@ABI_4_0 4:4.6.1
 _ZNK6Okteta26ByteArrayRowColumnRenderer16linePositionsOfXEii@ABI_4_0 4:4.6.1
 _ZNK6Okteta26ByteArrayRowColumnRenderer20rightXOfLinePositionEi@ABI_4_0 4:4.6.1
 _ZNK6Okteta26ByteArrayRowColumnRenderer21columnXOfLinePositionEi@ABI_4_0 4:4.6.1
 _ZNK6Okteta26ByteArrayRowColumnRenderer21linePositionOfColumnXEi@ABI_4_0 4:4.6.1
 _ZNK6Okteta26ByteArrayRowColumnRenderer23linePositionsOfColumnXsEii@ABI_4_0 4:4.6.1
 _ZNK6Okteta26ByteArrayRowColumnRenderer23magneticLinePositionOfXEi@ABI_4_0 4:4.6.1
 _ZNK6Okteta26ByteArrayRowColumnRenderer25getNextMarkedAddressRangeEPN3KDE11NumberRangeIiiEEPjRKS3_@ABI_4_0 4:4.6.1
 _ZNK6Okteta26ByteArrayRowColumnRenderer26columnRightXOfLinePositionEi@ABI_4_0 4:4.6.1
 _ZNK6Okteta26ByteArrayRowColumnRenderer27getNextSelectedAddressRangeEPN3KDE11NumberRangeIiiEEPjRKS3_@ABI_4_0 4:4.6.1
 _ZNK6Okteta26ByteArrayRowColumnRenderer27xsOfLinePositionsInclSpacesERKN3KDE11NumberRangeIiiEE@ABI_4_0 4:4.6.1
 _ZNK6Okteta26ByteArrayRowColumnRenderer33columnXsOfLinePositionsInclSpacesERKN3KDE11NumberRangeIiiEE@ABI_4_0 4:4.6.1
 _ZNK6Okteta26ByteArrayRowColumnRenderer8byteRectERKNS_5CoordE@ABI_4_0 4:4.6.1
 _ZNK6Okteta26ByteArrayRowColumnRenderer8byteRectERKNS_5CoordENS_21AbstractByteArrayView12CodingTypeIdE@ABI_4_0 4:4.6.1
 _ZNK6Okteta26ByteArrayRowColumnRenderer9rowHeightEv@ABI_4_0 4:4.6.1
 _ZNK6Okteta27CharByteArrayColumnRenderer14renderByteTextEP8QPainterhNS_9CharacterERK6QColor@ABI_4_0 4:4.6.1
 _ZNK6Okteta28ValueByteArrayColumnRenderer10renderCodeEP8QPainterRK7QStringRK6QColor@ABI_4_0 4:4.6.1
 _ZNK6Okteta28ValueByteArrayColumnRenderer14renderByteTextEP8QPainterhNS_9CharacterERK6QColor@ABI_4_0 4:4.6.1
 _ZNK6Okteta31AbstractByteArrayColumnRenderer15linePositionOfXEi@ABI_4_0 4:4.6.1
 _ZNK6Okteta31AbstractByteArrayColumnRenderer15xOfLinePositionEi@ABI_4_0 4:4.6.1
 _ZNK6Okteta31AbstractByteArrayColumnRenderer16linePositionsOfXEii@ABI_4_0 4:4.6.1
 _ZNK6Okteta31AbstractByteArrayColumnRenderer20rightXOfLinePositionEi@ABI_4_0 4:4.6.1
 _ZNK6Okteta31AbstractByteArrayColumnRenderer21columnXOfLinePositionEi@ABI_4_0 4:4.6.1
 _ZNK6Okteta31AbstractByteArrayColumnRenderer21linePositionOfColumnXEi@ABI_4_0 4:4.6.1
 _ZNK6Okteta31AbstractByteArrayColumnRenderer23linePositionsOfColumnXsEii@ABI_4_0 4:4.6.1
 _ZNK6Okteta31AbstractByteArrayColumnRenderer23magneticLinePositionOfXEi@ABI_4_0 4:4.6.1
 _ZNK6Okteta31AbstractByteArrayColumnRenderer25getNextMarkedAddressRangeEPN3KDE11NumberRangeIiiEEPjRKS3_@ABI_4_0 4:4.6.1
 _ZNK6Okteta31AbstractByteArrayColumnRenderer26columnRightXOfLinePositionEi@ABI_4_0 4:4.6.1
 _ZNK6Okteta31AbstractByteArrayColumnRenderer27getNextSelectedAddressRangeEPN3KDE11NumberRangeIiiEEPjRKS3_@ABI_4_0 4:4.6.1
 _ZNK6Okteta31AbstractByteArrayColumnRenderer27xsOfLinePositionsInclSpacesERKN3KDE11NumberRangeIiiEE@ABI_4_0 4:4.6.1
 _ZNK6Okteta31AbstractByteArrayColumnRenderer33columnXsOfLinePositionsInclSpacesERKN3KDE11NumberRangeIiiEE@ABI_4_0 4:4.6.1
 _ZNK6Okteta31AbstractByteArrayColumnRenderer8byteRectERKNS_5CoordE@ABI_4_0 4:4.6.1
 _ZTIN6Okteta11ColumnsViewE@ABI_4_0 4:4.6.1
 _ZTIN6Okteta16ByteArrayRowViewE@ABI_4_0 4:4.6.1
 _ZTIN6Okteta19ByteArrayColumnViewE@ABI_4_0 4:4.6.1
 _ZTIN6Okteta19WidgetColumnStylistE@ABI_4_0 4:4.6.1
 _ZTIN6Okteta20BorderColumnRendererE@ABI_4_0 4:4.6.1
 _ZTIN6Okteta20OffsetColumnRendererE@ABI_4_0 4:4.6.1
 _ZTIN6Okteta21AbstractByteArrayViewE@ABI_4_0 4:4.6.1
 _ZTIN6Okteta21AbstractColumnStylistE@ABI_4_0 4:4.6.1
 _ZTIN6Okteta22AbstractColumnRendererE@ABI_4_0 4:4.6.1
 _ZTIN6Okteta26ByteArrayRowColumnRendererE@ABI_4_0 4:4.6.1
 _ZTIN6Okteta27CharByteArrayColumnRendererE@ABI_4_0 4:4.6.1
 _ZTIN6Okteta28ValueByteArrayColumnRendererE@ABI_4_0 4:4.6.1
 _ZTIN6Okteta31AbstractByteArrayColumnRendererE@ABI_4_0 4:4.6.1
 _ZTSN6Okteta11ColumnsViewE@ABI_4_0 4:4.6.1
 _ZTSN6Okteta16ByteArrayRowViewE@ABI_4_0 4:4.6.1
 _ZTSN6Okteta19ByteArrayColumnViewE@ABI_4_0 4:4.6.1
 _ZTSN6Okteta19WidgetColumnStylistE@ABI_4_0 4:4.6.1
 _ZTSN6Okteta20BorderColumnRendererE@ABI_4_0 4:4.6.1
 _ZTSN6Okteta20OffsetColumnRendererE@ABI_4_0 4:4.6.1
 _ZTSN6Okteta21AbstractByteArrayViewE@ABI_4_0 4:4.6.1
 _ZTSN6Okteta21AbstractColumnStylistE@ABI_4_0 4:4.6.1
 _ZTSN6Okteta22AbstractColumnRendererE@ABI_4_0 4:4.6.1
 _ZTSN6Okteta26ByteArrayRowColumnRendererE@ABI_4_0 4:4.6.1
 _ZTSN6Okteta27CharByteArrayColumnRendererE@ABI_4_0 4:4.6.1
 _ZTSN6Okteta28ValueByteArrayColumnRendererE@ABI_4_0 4:4.6.1
 _ZTSN6Okteta31AbstractByteArrayColumnRendererE@ABI_4_0 4:4.6.1
 _ZTVN6Okteta11ColumnsViewE@ABI_4_0 4:4.6.1
 _ZTVN6Okteta16ByteArrayRowViewE@ABI_4_0 4:4.6.1
 _ZTVN6Okteta19ByteArrayColumnViewE@ABI_4_0 4:4.6.1
 _ZTVN6Okteta19WidgetColumnStylistE@ABI_4_0 4:4.6.1
 _ZTVN6Okteta20BorderColumnRendererE@ABI_4_0 4:4.6.1
 _ZTVN6Okteta20OffsetColumnRendererE@ABI_4_0 4:4.6.1
 _ZTVN6Okteta21AbstractByteArrayViewE@ABI_4_0 4:4.6.1
 _ZTVN6Okteta21AbstractColumnStylistE@ABI_4_0 4:4.6.1
 _ZTVN6Okteta22AbstractColumnRendererE@ABI_4_0 4:4.6.1
 _ZTVN6Okteta26ByteArrayRowColumnRendererE@ABI_4_0 4:4.6.1
 _ZTVN6Okteta27CharByteArrayColumnRendererE@ABI_4_0 4:4.6.1
 _ZTVN6Okteta28ValueByteArrayColumnRendererE@ABI_4_0 4:4.6.1
 _ZTVN6Okteta31AbstractByteArrayColumnRendererE@ABI_4_0 4:4.6.1
 (c++)"non-virtual thunk to Okteta::AbstractByteArrayView::~AbstractByteArrayView()@ABI_4_0" 4:4.6.1
 (c++)"non-virtual thunk to Okteta::ByteArrayColumnView::~ByteArrayColumnView()@ABI_4_0" 4:4.6.1
 (c++)"non-virtual thunk to Okteta::ByteArrayRowView::~ByteArrayRowView()@ABI_4_0" 4:4.6.1
 (c++)"non-virtual thunk to Okteta::ColumnsView::~ColumnsView()@ABI_4_0" 4:4.6.1
