# SymbolsHelper-Confirmed: 4:4.6.3 amd64
liboktetakastencontrollers.so.4 liboktetakastencontrollers4 #MINVER#
* Build-Depends-Package: okteta-dev
 ABI_4_0@ABI_4_0 4:4.6.1
 _ZN6Kasten10FilterTool11qt_metacallEN11QMetaObject4CallEiPPv@ABI_4_0 4:4.6.1
 _ZN6Kasten10FilterTool11qt_metacastEPKc@ABI_4_0 4:4.6.1
 _ZN6Kasten10FilterTool12parameterSetEi@ABI_4_0 4:4.6.1
 _ZN6Kasten10FilterTool14setTargetModelEPNS_13AbstractModelE@ABI_4_0 4:4.6.1
 _ZN6Kasten10FilterTool16charCodecChangedERK7QString@ABI_4_0 4:4.6.1
 _ZN6Kasten10FilterTool16staticMetaObjectE@ABI_4_0 4:4.6.1
 _ZN6Kasten10FilterTool18onApplyableChangedEv@ABI_4_0 4:4.6.1
 _ZN6Kasten10FilterTool19hasWriteableChangedEb@ABI_4_0 4:4.6.1
 _ZN6Kasten10FilterToolC1Ev@ABI_4_0 4:4.6.1
 _ZN6Kasten10FilterToolC2Ev@ABI_4_0 4:4.6.1
 _ZN6Kasten10FilterToolD0Ev@ABI_4_0 4:4.6.1
 _ZN6Kasten10FilterToolD1Ev@ABI_4_0 4:4.6.1
 _ZN6Kasten10FilterToolD2Ev@ABI_4_0 4:4.6.1
 _ZN6Kasten10StructTool10headerDataEii@ABI_4_0 4:4.6.1
 _ZN6Kasten10StructTool10updateDataERKN6Okteta22ArrayChangeMetricsListE@ABI_4_0 4:4.6.1
 _ZN6Kasten10StructTool11dataChangedEv@ABI_4_0 4:4.6.1
 _ZN6Kasten10StructTool11dataClearedEv@ABI_4_0 4:4.6.1
 _ZN6Kasten10StructTool11qt_metacallEN11QMetaObject4CallEiPPv@ABI_4_0 4:4.6.1
 _ZN6Kasten10StructTool11qt_metacastEPKc@ABI_4_0 4:4.6.1
 _ZN6Kasten10StructTool12addChildItemEP23TopLevelDataInformation@ABI_4_0 4:4.6.1
 _ZN6Kasten10StructTool12setByteOrderENS_21StructViewPreferences13EnumByteOrder4typeE@ABI_4_0 4:4.6.1
 _ZN6Kasten10StructTool12setByteOrderEi@ABI_4_0 4:4.6.1
 _ZN6Kasten10StructTool13lockStructureE11QModelIndex@ABI_4_0 4:4.6.1
 _ZN6Kasten10StructTool14setTargetModelEPNS_13AbstractModelE@ABI_4_0 4:4.6.1
 _ZN6Kasten10StructTool15unlockStructureE11QModelIndex@ABI_4_0 4:4.6.1
 _ZN6Kasten10StructTool16byteOrderChangedEv@ABI_4_0 4:4.6.1
 _ZN6Kasten10StructTool16onContentsChangeERKN6Okteta22ArrayChangeMetricsListE@ABI_4_0 4:4.6.1
 _ZN6Kasten10StructTool16staticMetaObjectE@ABI_4_0 4:4.6.1
 _ZN6Kasten10StructTool18cursorIndexChangedEv@ABI_4_0 4:4.6.1
 _ZN6Kasten10StructTool21byteArrayModelChangedEb@ABI_4_0 4:4.6.1
 _ZN6Kasten10StructTool21validateAllStructuresEv@ABI_4_0 4:4.6.1
 _ZN6Kasten10StructTool22onCursorPositionChangeEi@ABI_4_0 4:4.6.1
 _ZN6Kasten10StructTool27setSelectedStructuresInViewEv@ABI_4_0 4:4.6.1
 _ZN6Kasten10StructTool4markERK11QModelIndex@ABI_4_0 4:4.6.1
 _ZN6Kasten10StructTool6unmarkEv@ABI_4_0 4:4.6.1
 _ZN6Kasten10StructTool7setDataERK8QVariantiP15DataInformation@ABI_4_0 4:4.6.1
 _ZN6Kasten10StructToolC1Ev@ABI_4_0 4:4.6.1
 _ZN6Kasten10StructToolC2Ev@ABI_4_0 4:4.6.1
 _ZN6Kasten10StructToolD0Ev@ABI_4_0 4:4.6.1
 _ZN6Kasten10StructToolD1Ev@ABI_4_0 4:4.6.1
 _ZN6Kasten10StructToolD2Ev@ABI_4_0 4:4.6.1
 _ZN6Kasten12ChecksumTool11qt_metacallEN11QMetaObject4CallEiPPv@ABI_4_0 4:4.6.1
 _ZN6Kasten12ChecksumTool11qt_metacastEPKc@ABI_4_0 4:4.6.1
 _ZN6Kasten12ChecksumTool12parameterSetEv@ABI_4_0 4:4.6.1
 _ZN6Kasten12ChecksumTool12setAlgorithmEi@ABI_4_0 4:4.6.1
 _ZN6Kasten12ChecksumTool13checkUptoDateEv@ABI_4_0 4:4.6.1
 _ZN6Kasten12ChecksumTool14setTargetModelEPNS_13AbstractModelE@ABI_4_0 4:4.6.1
 _ZN6Kasten12ChecksumTool15checksumChangedERK7QString@ABI_4_0 4:4.6.1
 _ZN6Kasten12ChecksumTool15onSourceChangedEv@ABI_4_0 4:4.6.1
 _ZN6Kasten12ChecksumTool15resetSourceToolEv@ABI_4_0 4:4.6.1
 _ZN6Kasten12ChecksumTool15uptodateChangedEb@ABI_4_0 4:4.6.1
 _ZN6Kasten12ChecksumTool16staticMetaObjectE@ABI_4_0 4:4.6.1
 _ZN6Kasten12ChecksumTool17calculateChecksumEv@ABI_4_0 4:4.6.1
 _ZN6Kasten12ChecksumTool17onSourceDestroyedEv@ABI_4_0 4:4.6.1
 _ZN6Kasten12ChecksumTool18isApplyableChangedEb@ABI_4_0 4:4.6.1
 _ZN6Kasten12ChecksumTool18onSelectionChangedEv@ABI_4_0 4:4.6.1
 _ZN6Kasten12ChecksumToolC1Ev@ABI_4_0 4:4.6.1
 _ZN6Kasten12ChecksumToolC2Ev@ABI_4_0 4:4.6.1
 _ZN6Kasten12ChecksumToolD0Ev@ABI_4_0 4:4.6.1
 _ZN6Kasten12ChecksumToolD1Ev@ABI_4_0 4:4.6.1
 _ZN6Kasten12ChecksumToolD2Ev@ABI_4_0 4:4.6.1
 _ZN6Kasten12InfoToolViewC1EPNS_8InfoToolE@ABI_4_0 4:4.6.1
 _ZN6Kasten12InfoToolViewC2EPNS_8InfoToolE@ABI_4_0 4:4.6.1
 _ZN6Kasten12InfoToolViewD0Ev@ABI_4_0 4:4.6.1
 _ZN6Kasten12InfoToolViewD1Ev@ABI_4_0 4:4.6.1
 _ZN6Kasten12InfoToolViewD2Ev@ABI_4_0 4:4.6.1
 _ZN6Kasten13BookmarksTool11qt_metacallEN11QMetaObject4CallEiPPv@ABI_4_0 4:4.6.1
 _ZN6Kasten13BookmarksTool11qt_metacastEPKc@ABI_4_0 4:4.6.1
 _ZN6Kasten13BookmarksTool12gotoBookmarkERKN6Okteta8BookmarkE@ABI_4_0 4:4.6.1
 _ZN6Kasten13BookmarksTool14bookmarksAddedERK5QListIN6Okteta8BookmarkEE@ABI_4_0 4:4.6.1
 _ZN6Kasten13BookmarksTool14createBookmarkEv@ABI_4_0 4:4.6.1
 _ZN6Kasten13BookmarksTool14setTargetModelEPNS_13AbstractModelE@ABI_4_0 4:4.6.1
 _ZN6Kasten13BookmarksTool15deleteBookmarksERK5QListIN6Okteta8BookmarkEE@ABI_4_0 4:4.6.1
 _ZN6Kasten13BookmarksTool15setBookmarkNameEjRK7QString@ABI_4_0 4:4.6.1
 _ZN6Kasten13BookmarksTool16bookmarksRemovedERK5QListIN6Okteta8BookmarkEE@ABI_4_0 4:4.6.1
 _ZN6Kasten13BookmarksTool16staticMetaObjectE@ABI_4_0 4:4.6.1
 _ZN6Kasten13BookmarksTool17bookmarksModifiedERK5QListIiE@ABI_4_0 4:4.6.1
 _ZN6Kasten13BookmarksTool19hasBookmarksChangedEb@ABI_4_0 4:4.6.1
 _ZN6Kasten13BookmarksTool19onBookmarksModifiedEv@ABI_4_0 4:4.6.1
 _ZN6Kasten13BookmarksTool23onCursorPositionChangedEi@ABI_4_0 4:4.6.1
 _ZN6Kasten13BookmarksTool24canCreateBookmarkChangedEb@ABI_4_0 4:4.6.1
 _ZN6Kasten13BookmarksToolC1Ev@ABI_4_0 4:4.6.1
 _ZN6Kasten13BookmarksToolC2Ev@ABI_4_0 4:4.6.1
 _ZN6Kasten13BookmarksToolD0Ev@ABI_4_0 4:4.6.1
 _ZN6Kasten13BookmarksToolD1Ev@ABI_4_0 4:4.6.1
 _ZN6Kasten13BookmarksToolD2Ev@ABI_4_0 4:4.6.1
 _ZN6Kasten13ByteTableTool11qt_metacallEN11QMetaObject4CallEiPPv@ABI_4_0 4:4.6.1
 _ZN6Kasten13ByteTableTool11qt_metacastEPKc@ABI_4_0 4:4.6.1
 _ZN6Kasten13ByteTableTool14setTargetModelEPNS_13AbstractModelE@ABI_4_0 4:4.6.1
 _ZN6Kasten13ByteTableTool16staticMetaObjectE@ABI_4_0 4:4.6.1
 _ZN6Kasten13ByteTableTool17onReadOnlyChangedEb@ABI_4_0 4:4.6.1
 _ZN6Kasten13ByteTableTool19hasWriteableChangedEb@ABI_4_0 4:4.6.1
 _ZN6Kasten13ByteTableTool6insertEhi@ABI_4_0 4:4.6.1
 _ZN6Kasten13ByteTableToolC1Ev@ABI_4_0 4:4.6.1
 _ZN6Kasten13ByteTableToolC2Ev@ABI_4_0 4:4.6.1
 _ZN6Kasten13ByteTableToolD0Ev@ABI_4_0 4:4.6.1
 _ZN6Kasten13ByteTableToolD1Ev@ABI_4_0 4:4.6.1
 _ZN6Kasten13ByteTableToolD2Ev@ABI_4_0 4:4.6.1
 _ZN6Kasten14FilterToolViewC1EPNS_10FilterToolE@ABI_4_0 4:4.6.1
 _ZN6Kasten14FilterToolViewC2EPNS_10FilterToolE@ABI_4_0 4:4.6.1
 _ZN6Kasten14FilterToolViewD0Ev@ABI_4_0 4:4.6.1
 _ZN6Kasten14FilterToolViewD1Ev@ABI_4_0 4:4.6.1
 _ZN6Kasten14FilterToolViewD2Ev@ABI_4_0 4:4.6.1
 _ZN6Kasten14PODDecoderTool10updateDataEv@ABI_4_0 4:4.6.1
 _ZN6Kasten14PODDecoderTool11dataChangedEv@ABI_4_0 4:4.6.1
 _ZN6Kasten14PODDecoderTool11qt_metacallEN11QMetaObject4CallEiPPv@ABI_4_0 4:4.6.1
 _ZN6Kasten14PODDecoderTool11qt_metacastEPKc@ABI_4_0 4:4.6.1
 _ZN6Kasten14PODDecoderTool12setByteOrderEi@ABI_4_0 4:4.6.1
 _ZN6Kasten14PODDecoderTool12setupDecoderEv@ABI_4_0 4:4.6.1
 _ZN6Kasten14PODDecoderTool14setTargetModelEPNS_13AbstractModelE@ABI_4_0 4:4.6.1
 _ZN6Kasten14PODDecoderTool15readOnlyChangedEb@ABI_4_0 4:4.6.1
 _ZN6Kasten14PODDecoderTool16onContentsChangeEv@ABI_4_0 4:4.6.1
 _ZN6Kasten14PODDecoderTool16setUnsignedAsHexEb@ABI_4_0 4:4.6.1
 _ZN6Kasten14PODDecoderTool16staticMetaObjectE@ABI_4_0 4:4.6.1
 _ZN6Kasten14PODDecoderTool17onCharCodecChangeERK7QString@ABI_4_0 4:4.6.1
 _ZN6Kasten14PODDecoderTool17onReadOnlyChangedEv@ABI_4_0 4:4.6.1
 _ZN6Kasten14PODDecoderTool18isApplyableChangedEb@ABI_4_0 4:4.6.1
 _ZN6Kasten14PODDecoderTool22onCursorPositionChangeEi@ABI_4_0 4:4.6.1
 _ZN6Kasten14PODDecoderTool22setDifferentSizeDialogEPNS_27AbstractDifferentSizeDialogE@ABI_4_0 4:4.6.1
 _ZN6Kasten14PODDecoderTool7markPODEi@ABI_4_0 4:4.6.1
 _ZN6Kasten14PODDecoderTool7setDataERK8QVarianti@ABI_4_0 4:4.6.1
 _ZN6Kasten14PODDecoderTool9unmarkPODEv@ABI_4_0 4:4.6.1
 _ZN6Kasten14PODDecoderToolC1Ev@ABI_4_0 4:4.6.1
 _ZN6Kasten14PODDecoderToolC2Ev@ABI_4_0 4:4.6.1
 _ZN6Kasten14PODDecoderToolD0Ev@ABI_4_0 4:4.6.1
 _ZN6Kasten14PODDecoderToolD1Ev@ABI_4_0 4:4.6.1
 _ZN6Kasten14PODDecoderToolD2Ev@ABI_4_0 4:4.6.1
 _ZN6Kasten14StructToolViewC1EPNS_10StructToolE@ABI_4_0 4:4.6.1
 _ZN6Kasten14StructToolViewC2EPNS_10StructToolE@ABI_4_0 4:4.6.1
 _ZN6Kasten14StructToolViewD0Ev@ABI_4_0 4:4.6.1
 _ZN6Kasten14StructToolViewD1Ev@ABI_4_0 4:4.6.1
 _ZN6Kasten14StructToolViewD2Ev@ABI_4_0 4:4.6.1
 _ZN6Kasten15InfoToolFactory6createEv@ABI_4_0 4:4.6.1
 _ZN6Kasten15InfoToolFactoryC1Ev@ABI_4_0 4:4.6.1
 _ZN6Kasten15InfoToolFactoryC2Ev@ABI_4_0 4:4.6.1
 _ZN6Kasten15InfoToolFactoryD0Ev@ABI_4_0 4:4.6.1
 _ZN6Kasten15InfoToolFactoryD1Ev@ABI_4_0 4:4.6.1
 _ZN6Kasten15InfoToolFactoryD2Ev@ABI_4_0 4:4.6.1
 _ZN6Kasten15PrintController11qt_metacallEN11QMetaObject4CallEiPPv@ABI_4_0 4:4.6.1
 _ZN6Kasten15PrintController11qt_metacastEPKc@ABI_4_0 4:4.6.1
 _ZN6Kasten15PrintController14setTargetModelEPNS_13AbstractModelE@ABI_4_0 4:4.6.1
 _ZN6Kasten15PrintController16staticMetaObjectE@ABI_4_0 4:4.6.1
 _ZN6Kasten15PrintController5printEv@ABI_4_0 4:4.6.1
 _ZN6Kasten15PrintControllerC1EP13KXMLGUIClient@ABI_4_0 4:4.6.1
 _ZN6Kasten15PrintControllerC2EP13KXMLGUIClient@ABI_4_0 4:4.6.1
 _ZN6Kasten15PrintControllerD0Ev@ABI_4_0 4:4.6.1
 _ZN6Kasten15PrintControllerD1Ev@ABI_4_0 4:4.6.1
 _ZN6Kasten15PrintControllerD2Ev@ABI_4_0 4:4.6.1
 _ZN6Kasten16ChecksumToolViewC1EPNS_12ChecksumToolE@ABI_4_0 4:4.6.1
 _ZN6Kasten16ChecksumToolViewC2EPNS_12ChecksumToolE@ABI_4_0 4:4.6.1
 _ZN6Kasten16ChecksumToolViewD0Ev@ABI_4_0 4:4.6.1
 _ZN6Kasten16ChecksumToolViewD1Ev@ABI_4_0 4:4.6.1
 _ZN6Kasten16ChecksumToolViewD2Ev@ABI_4_0 4:4.6.1
 _ZN6Kasten16DocumentInfoTool11qt_metacallEN11QMetaObject4CallEiPPv@ABI_4_0 4:4.6.1
 _ZN6Kasten16DocumentInfoTool11qt_metacastEPKc@ABI_4_0 4:4.6.1
 _ZN6Kasten16DocumentInfoTool12onUrlChangedERK4KUrl@ABI_4_0 4:4.6.1
 _ZN6Kasten16DocumentInfoTool14onSynchronizedEv@ABI_4_0 4:4.6.1
 _ZN6Kasten16DocumentInfoTool14setTargetModelEPNS_13AbstractModelE@ABI_4_0 4:4.6.1
 _ZN6Kasten16DocumentInfoTool14updateMimeTypeEv@ABI_4_0 4:4.6.1
 _ZN6Kasten16DocumentInfoTool15locationChangedERK7QString@ABI_4_0 4:4.6.1
 _ZN6Kasten16DocumentInfoTool16staticMetaObjectE@ABI_4_0 4:4.6.1
 _ZN6Kasten16DocumentInfoTool17onContentsChangedEv@ABI_4_0 4:4.6.1
 _ZN6Kasten16DocumentInfoTool19documentSizeChangedEi@ABI_4_0 4:4.6.1
 _ZN6Kasten16DocumentInfoTool20documentTitleChangedERK7QString@ABI_4_0 4:4.6.1
 _ZN6Kasten16DocumentInfoTool21onSynchronizerChangedEPNS_25AbstractModelSynchronizerE@ABI_4_0 4:4.6.1
 _ZN6Kasten16DocumentInfoTool23documentMimeTypeChangedE10KSharedPtrI9KMimeTypeE@ABI_4_0 4:4.6.1
 _ZN6Kasten16DocumentInfoToolC1EPNS_19DocumentSyncManagerE@ABI_4_0 4:4.6.1
 _ZN6Kasten16DocumentInfoToolC2EPNS_19DocumentSyncManagerE@ABI_4_0 4:4.6.1
 _ZN6Kasten16DocumentInfoToolD0Ev@ABI_4_0 4:4.6.1
 _ZN6Kasten16DocumentInfoToolD1Ev@ABI_4_0 4:4.6.1
 _ZN6Kasten16DocumentInfoToolD2Ev@ABI_4_0 4:4.6.1
 _ZN6Kasten16SearchController10showDialogENS_14KFindDirectionE@ABI_4_0 4:4.6.1
 _ZN6Kasten16SearchController11qt_metacallEN11QMetaObject4CallEiPPv@ABI_4_0 4:4.6.1
 _ZN6Kasten16SearchController11qt_metacastEPKc@ABI_4_0 4:4.6.1
 _ZN6Kasten16SearchController12findPreviousEv@ABI_4_0 4:4.6.1
 _ZN6Kasten16SearchController14onDataNotFoundEv@ABI_4_0 4:4.6.1
 _ZN6Kasten16SearchController14setTargetModelEPNS_13AbstractModelE@ABI_4_0 4:4.6.1
 _ZN6Kasten16SearchController16staticMetaObjectE@ABI_4_0 4:4.6.1
 _ZN6Kasten16SearchController4findEv@ABI_4_0 4:4.6.1
 _ZN6Kasten16SearchController8findNextEv@ABI_4_0 4:4.6.1
 _ZN6Kasten16SearchControllerC1EP13KXMLGUIClientP7QWidget@ABI_4_0 4:4.6.1
 _ZN6Kasten16SearchControllerC2EP13KXMLGUIClientP7QWidget@ABI_4_0 4:4.6.1
 _ZN6Kasten16SearchControllerD0Ev@ABI_4_0 4:4.6.1
 _ZN6Kasten16SearchControllerD1Ev@ABI_4_0 4:4.6.1
 _ZN6Kasten16SearchControllerD2Ev@ABI_4_0 4:4.6.1
 _ZN6Kasten17BookmarksToolViewC1EPNS_13BookmarksToolE@ABI_4_0 4:4.6.1
 _ZN6Kasten17BookmarksToolViewC2EPNS_13BookmarksToolE@ABI_4_0 4:4.6.1
 _ZN6Kasten17BookmarksToolViewD0Ev@ABI_4_0 4:4.6.1
 _ZN6Kasten17BookmarksToolViewD1Ev@ABI_4_0 4:4.6.1
 _ZN6Kasten17BookmarksToolViewD2Ev@ABI_4_0 4:4.6.1
 _ZN6Kasten17ByteTableToolViewC1EPNS_13ByteTableToolE@ABI_4_0 4:4.6.1
 _ZN6Kasten17ByteTableToolViewC2EPNS_13ByteTableToolE@ABI_4_0 4:4.6.1
 _ZN6Kasten17ByteTableToolViewD0Ev@ABI_4_0 4:4.6.1
 _ZN6Kasten17ByteTableToolViewD1Ev@ABI_4_0 4:4.6.1
 _ZN6Kasten17ByteTableToolViewD2Ev@ABI_4_0 4:4.6.1
 _ZN6Kasten17FilterToolFactory6createEv@ABI_4_0 4:4.6.1
 _ZN6Kasten17FilterToolFactoryC1Ev@ABI_4_0 4:4.6.1
 _ZN6Kasten17FilterToolFactoryC2Ev@ABI_4_0 4:4.6.1
 _ZN6Kasten17FilterToolFactoryD0Ev@ABI_4_0 4:4.6.1
 _ZN6Kasten17FilterToolFactoryD1Ev@ABI_4_0 4:4.6.1
 _ZN6Kasten17FilterToolFactoryD2Ev@ABI_4_0 4:4.6.1
 _ZN6Kasten17ReplaceController10onFinishedEbi@ABI_4_0 4:4.6.1
 _ZN6Kasten17ReplaceController11qt_metacallEN11QMetaObject4CallEiPPv@ABI_4_0 4:4.6.1
 _ZN6Kasten17ReplaceController11qt_metacastEPKc@ABI_4_0 4:4.6.1
 _ZN6Kasten17ReplaceController14setTargetModelEPNS_13AbstractModelE@ABI_4_0 4:4.6.1
 _ZN6Kasten17ReplaceController16staticMetaObjectE@ABI_4_0 4:4.6.1
 _ZN6Kasten17ReplaceController7replaceEv@ABI_4_0 4:4.6.1
 _ZN6Kasten17ReplaceControllerC1EP13KXMLGUIClientP7QWidget@ABI_4_0 4:4.6.1
 _ZN6Kasten17ReplaceControllerC2EP13KXMLGUIClientP7QWidget@ABI_4_0 4:4.6.1
 _ZN6Kasten17ReplaceControllerD0Ev@ABI_4_0 4:4.6.1
 _ZN6Kasten17ReplaceControllerD1Ev@ABI_4_0 4:4.6.1
 _ZN6Kasten17ReplaceControllerD2Ev@ABI_4_0 4:4.6.1
 _ZN6Kasten18PODDecoderToolViewC1EPNS_14PODDecoderToolE@ABI_4_0 4:4.6.1
 _ZN6Kasten18PODDecoderToolViewC2EPNS_14PODDecoderToolE@ABI_4_0 4:4.6.1
 _ZN6Kasten18PODDecoderToolViewD0Ev@ABI_4_0 4:4.6.1
 _ZN6Kasten18PODDecoderToolViewD1Ev@ABI_4_0 4:4.6.1
 _ZN6Kasten18PODDecoderToolViewD2Ev@ABI_4_0 4:4.6.1
 _ZN6Kasten18StringsExtractTool10markStringEi@ABI_4_0 4:4.6.1
 _ZN6Kasten18StringsExtractTool11qt_metacallEN11QMetaObject4CallEiPPv@ABI_4_0 4:4.6.1
 _ZN6Kasten18StringsExtractTool11qt_metacastEPKc@ABI_4_0 4:4.6.1
 _ZN6Kasten18StringsExtractTool12setCharCodecERK7QString@ABI_4_0 4:4.6.1
 _ZN6Kasten18StringsExtractTool12setMinLengthEi@ABI_4_0 4:4.6.1
 _ZN6Kasten18StringsExtractTool12unmarkStringEv@ABI_4_0 4:4.6.1
 _ZN6Kasten18StringsExtractTool13checkUptoDateEv@ABI_4_0 4:4.6.1
 _ZN6Kasten18StringsExtractTool14extractStringsEv@ABI_4_0 4:4.6.1
 _ZN6Kasten18StringsExtractTool14setTargetModelEPNS_13AbstractModelE@ABI_4_0 4:4.6.1
 _ZN6Kasten18StringsExtractTool15onSourceChangedEv@ABI_4_0 4:4.6.1
 _ZN6Kasten18StringsExtractTool15uptodateChangedEb@ABI_4_0 4:4.6.1
 _ZN6Kasten18StringsExtractTool16staticMetaObjectE@ABI_4_0 4:4.6.1
 _ZN6Kasten18StringsExtractTool17onSourceDestroyedEv@ABI_4_0 4:4.6.1
 _ZN6Kasten18StringsExtractTool18isApplyableChangedEb@ABI_4_0 4:4.6.1
 _ZN6Kasten18StringsExtractTool18onSelectionChangedEv@ABI_4_0 4:4.6.1
 _ZN6Kasten18StringsExtractTool21onSourceViewDestroyedEv@ABI_4_0 4:4.6.1
 _ZN6Kasten18StringsExtractTool25canHighlightStringChangedEb@ABI_4_0 4:4.6.1
 _ZN6Kasten18StringsExtractToolC1Ev@ABI_4_0 4:4.6.1
 _ZN6Kasten18StringsExtractToolC2Ev@ABI_4_0 4:4.6.1
 _ZN6Kasten18StringsExtractToolD0Ev@ABI_4_0 4:4.6.1
 _ZN6Kasten18StringsExtractToolD1Ev@ABI_4_0 4:4.6.1
 _ZN6Kasten18StringsExtractToolD2Ev@ABI_4_0 4:4.6.1
 _ZN6Kasten18ViewModeController11qt_metacallEN11QMetaObject4CallEiPPv@ABI_4_0 4:4.6.1
 _ZN6Kasten18ViewModeController11qt_metacastEPKc@ABI_4_0 4:4.6.1
 _ZN6Kasten18ViewModeController11setViewModeEi@ABI_4_0 4:4.6.1
 _ZN6Kasten18ViewModeController14setTargetModelEPNS_13AbstractModelE@ABI_4_0 4:4.6.1
 _ZN6Kasten18ViewModeController16staticMetaObjectE@ABI_4_0 4:4.6.1
 _ZN6Kasten18ViewModeControllerC1EP13KXMLGUIClient@ABI_4_0 4:4.6.1
 _ZN6Kasten18ViewModeControllerC2EP13KXMLGUIClient@ABI_4_0 4:4.6.1
 _ZN6Kasten19BookmarksController11qt_metacallEN11QMetaObject4CallEiPPv@ABI_4_0 4:4.6.1
 _ZN6Kasten19BookmarksController11qt_metacastEPKc@ABI_4_0 4:4.6.1
 _ZN6Kasten19BookmarksController14createBookmarkEv@ABI_4_0 4:4.6.1
 _ZN6Kasten19BookmarksController14deleteBookmarkEv@ABI_4_0 4:4.6.1
 _ZN6Kasten19BookmarksController14setTargetModelEPNS_13AbstractModelE@ABI_4_0 4:4.6.1
 _ZN6Kasten19BookmarksController15updateBookmarksEv@ABI_4_0 4:4.6.1
 _ZN6Kasten19BookmarksController16gotoNextBookmarkEv@ABI_4_0 4:4.6.1
 _ZN6Kasten19BookmarksController16onBookmarksAddedERK5QListIN6Okteta8BookmarkEE@ABI_4_0 4:4.6.1
 _ZN6Kasten19BookmarksController16staticMetaObjectE@ABI_4_0 4:4.6.1
 _ZN6Kasten19BookmarksController18deleteAllBookmarksEv@ABI_4_0 4:4.6.1
 _ZN6Kasten19BookmarksController18onBookmarksRemovedERK5QListIN6Okteta8BookmarkEE@ABI_4_0 4:4.6.1
 _ZN6Kasten19BookmarksController19onBookmarkTriggeredEP7QAction@ABI_4_0 4:4.6.1
 _ZN6Kasten19BookmarksController20gotoPreviousBookmarkEv@ABI_4_0 4:4.6.1
 _ZN6Kasten19BookmarksController23onCursorPositionChangedEi@ABI_4_0 4:4.6.1
 _ZN6Kasten19BookmarksControllerC1EP13KXMLGUIClient@ABI_4_0 4:4.6.1
 _ZN6Kasten19BookmarksControllerC2EP13KXMLGUIClient@ABI_4_0 4:4.6.1
 _ZN6Kasten19BookmarksControllerD0Ev@ABI_4_0 4:4.6.1
 _ZN6Kasten19BookmarksControllerD1Ev@ABI_4_0 4:4.6.1
 _ZN6Kasten19BookmarksControllerD2Ev@ABI_4_0 4:4.6.1
 _ZN6Kasten19ChecksumToolFactory6createEv@ABI_4_0 4:4.6.1
 _ZN6Kasten19ChecksumToolFactoryC1Ev@ABI_4_0 4:4.6.1
 _ZN6Kasten19ChecksumToolFactoryC2Ev@ABI_4_0 4:4.6.1
 _ZN6Kasten19ChecksumToolFactoryD0Ev@ABI_4_0 4:4.6.1
 _ZN6Kasten19ChecksumToolFactoryD1Ev@ABI_4_0 4:4.6.1
 _ZN6Kasten19ChecksumToolFactoryD2Ev@ABI_4_0 4:4.6.1
 _ZN6Kasten19InfoToolViewFactory6createEPNS_12AbstractToolE@ABI_4_0 4:4.6.1
 _ZN6Kasten19InfoToolViewFactoryC1Ev@ABI_4_0 4:4.6.1
 _ZN6Kasten19InfoToolViewFactoryC2Ev@ABI_4_0 4:4.6.1
 _ZN6Kasten19InfoToolViewFactoryD0Ev@ABI_4_0 4:4.6.1
 _ZN6Kasten19InfoToolViewFactoryD1Ev@ABI_4_0 4:4.6.1
 _ZN6Kasten19InfoToolViewFactoryD2Ev@ABI_4_0 4:4.6.1
 _ZN6Kasten20BookmarksToolFactory6createEv@ABI_4_0 4:4.6.1
 _ZN6Kasten20BookmarksToolFactoryC1Ev@ABI_4_0 4:4.6.1
 _ZN6Kasten20BookmarksToolFactoryC2Ev@ABI_4_0 4:4.6.1
 _ZN6Kasten20BookmarksToolFactoryD0Ev@ABI_4_0 4:4.6.1
 _ZN6Kasten20BookmarksToolFactoryD1Ev@ABI_4_0 4:4.6.1
 _ZN6Kasten20BookmarksToolFactoryD2Ev@ABI_4_0 4:4.6.1
 _ZN6Kasten20ByteTableToolFactory6createEv@ABI_4_0 4:4.6.1
 _ZN6Kasten20ByteTableToolFactoryC1Ev@ABI_4_0 4:4.6.1
 _ZN6Kasten20ByteTableToolFactoryC2Ev@ABI_4_0 4:4.6.1
 _ZN6Kasten20ByteTableToolFactoryD0Ev@ABI_4_0 4:4.6.1
 _ZN6Kasten20ByteTableToolFactoryD1Ev@ABI_4_0 4:4.6.1
 _ZN6Kasten20ByteTableToolFactoryD2Ev@ABI_4_0 4:4.6.1
 _ZN6Kasten20DocumentInfoToolViewC1EPNS_16DocumentInfoToolE@ABI_4_0 4:4.6.1
 _ZN6Kasten20DocumentInfoToolViewC2EPNS_16DocumentInfoToolE@ABI_4_0 4:4.6.1
 _ZN6Kasten20DocumentInfoToolViewD0Ev@ABI_4_0 4:4.6.1
 _ZN6Kasten20DocumentInfoToolViewD1Ev@ABI_4_0 4:4.6.1
 _ZN6Kasten20DocumentInfoToolViewD2Ev@ABI_4_0 4:4.6.1
 _ZN6Kasten20GotoOffsetController10gotoOffsetEv@ABI_4_0 4:4.6.1
 _ZN6Kasten20GotoOffsetController11qt_metacallEN11QMetaObject4CallEiPPv@ABI_4_0 4:4.6.1
 _ZN6Kasten20GotoOffsetController11qt_metacastEPKc@ABI_4_0 4:4.6.1
 _ZN6Kasten20GotoOffsetController14setTargetModelEPNS_13AbstractModelE@ABI_4_0 4:4.6.1
 _ZN6Kasten20GotoOffsetController16staticMetaObjectE@ABI_4_0 4:4.6.1
 _ZN6Kasten20GotoOffsetControllerC1EPNS_2If18ToolInlineViewableEP13KXMLGUIClient@ABI_4_0 4:4.6.1
 _ZN6Kasten20GotoOffsetControllerC2EPNS_2If18ToolInlineViewableEP13KXMLGUIClient@ABI_4_0 4:4.6.1
 _ZN6Kasten20GotoOffsetControllerD0Ev@ABI_4_0 4:4.6.1
 _ZN6Kasten20GotoOffsetControllerD1Ev@ABI_4_0 4:4.6.1
 _ZN6Kasten20GotoOffsetControllerD2Ev@ABI_4_0 4:4.6.1
 _ZN6Kasten20ViewConfigController11qt_metacallEN11QMetaObject4CallEiPPv@ABI_4_0 4:4.6.1
 _ZN6Kasten20ViewConfigController11qt_metacastEPKc@ABI_4_0 4:4.6.1
 _ZN6Kasten20ViewConfigController13setCharCodingEi@ABI_4_0 4:4.6.1
 _ZN6Kasten20ViewConfigController14setLayoutStyleEi@ABI_4_0 4:4.6.1
 _ZN6Kasten20ViewConfigController14setTargetModelEPNS_13AbstractModelE@ABI_4_0 4:4.6.1
 _ZN6Kasten20ViewConfigController14setValueCodingEi@ABI_4_0 4:4.6.1
 _ZN6Kasten20ViewConfigController15setBytesPerLineEv@ABI_4_0 4:4.6.1
 _ZN6Kasten20ViewConfigController16setBytesPerGroupEv@ABI_4_0 4:4.6.1
 _ZN6Kasten20ViewConfigController16staticMetaObjectE@ABI_4_0 4:4.6.1
 _ZN6Kasten20ViewConfigController18onCharCodecChangedERK7QString@ABI_4_0 4:4.6.1
 _ZN6Kasten20ViewConfigController18toggleOffsetColumnEb@ABI_4_0 4:4.6.1
 _ZN6Kasten20ViewConfigController19setShowsNonprintingEb@ABI_4_0 4:4.6.1
 _ZN6Kasten20ViewConfigController20onValueCodingChangedEi@ABI_4_0 4:4.6.1
 _ZN6Kasten20ViewConfigController22toggleValueCharColumnsEi@ABI_4_0 4:4.6.1
 _ZN6Kasten20ViewConfigControllerC1EP13KXMLGUIClient@ABI_4_0 4:4.6.1
 _ZN6Kasten20ViewConfigControllerC2EP13KXMLGUIClient@ABI_4_0 4:4.6.1
 _ZN6Kasten20ViewStatusController11qt_metacallEN11QMetaObject4CallEiPPv@ABI_4_0 4:4.6.1
 _ZN6Kasten20ViewStatusController11qt_metacastEPKc@ABI_4_0 4:4.6.1
 _ZN6Kasten20ViewStatusController13setCharCodingEi@ABI_4_0 4:4.6.1
 _ZN6Kasten20ViewStatusController14setTargetModelEPNS_13AbstractModelE@ABI_4_0 4:4.6.1
 _ZN6Kasten20ViewStatusController14setValueCodingEi@ABI_4_0 4:4.6.1
 _ZN6Kasten20ViewStatusController16setOverwriteModeEb@ABI_4_0 4:4.6.1
 _ZN6Kasten20ViewStatusController16staticMetaObjectE@ABI_4_0 4:4.6.1
 _ZN6Kasten20ViewStatusController18onCharCodecChangedERK7QString@ABI_4_0 4:4.6.1
 _ZN6Kasten20ViewStatusController20onValueCodingChangedEi@ABI_4_0 4:4.6.1
 _ZN6Kasten20ViewStatusController21onSelectedDataChangedEPKNS_22AbstractModelSelectionE@ABI_4_0 4:4.6.1
 _ZN6Kasten20ViewStatusController23onCursorPositionChangedEi@ABI_4_0 4:4.6.1
 _ZN6Kasten20ViewStatusController9fixWidthsEv@ABI_4_0 4:4.6.1
 _ZN6Kasten20ViewStatusControllerC1EPNS_9StatusBarE@ABI_4_0 4:4.6.1
 _ZN6Kasten20ViewStatusControllerC2EPNS_9StatusBarE@ABI_4_0 4:4.6.1
 _ZN6Kasten21FilterToolViewFactory6createEPNS_12AbstractToolE@ABI_4_0 4:4.6.1
 _ZN6Kasten21FilterToolViewFactoryC1Ev@ABI_4_0 4:4.6.1
 _ZN6Kasten21FilterToolViewFactoryC2Ev@ABI_4_0 4:4.6.1
 _ZN6Kasten21FilterToolViewFactoryD0Ev@ABI_4_0 4:4.6.1
 _ZN6Kasten21FilterToolViewFactoryD1Ev@ABI_4_0 4:4.6.1
 _ZN6Kasten21FilterToolViewFactoryD2Ev@ABI_4_0 4:4.6.1
 _ZN6Kasten21PodDecoderToolFactory6createEv@ABI_4_0 4:4.6.1
 _ZN6Kasten21PodDecoderToolFactoryC1Ev@ABI_4_0 4:4.6.1
 _ZN6Kasten21PodDecoderToolFactoryC2Ev@ABI_4_0 4:4.6.1
 _ZN6Kasten21PodDecoderToolFactoryD0Ev@ABI_4_0 4:4.6.1
 _ZN6Kasten21PodDecoderToolFactoryD1Ev@ABI_4_0 4:4.6.1
 _ZN6Kasten21PodDecoderToolFactoryD2Ev@ABI_4_0 4:4.6.1
 _ZN6Kasten21SelectRangeController11qt_metacallEN11QMetaObject4CallEiPPv@ABI_4_0 4:4.6.1
 _ZN6Kasten21SelectRangeController11qt_metacastEPKc@ABI_4_0 4:4.6.1
 _ZN6Kasten21SelectRangeController14setTargetModelEPNS_13AbstractModelE@ABI_4_0 4:4.6.1
 _ZN6Kasten21SelectRangeController16staticMetaObjectE@ABI_4_0 4:4.6.1
 _ZN6Kasten21SelectRangeController6selectEv@ABI_4_0 4:4.6.1
 _ZN6Kasten21SelectRangeControllerC1EPNS_2If18ToolInlineViewableEP13KXMLGUIClient@ABI_4_0 4:4.6.1
 _ZN6Kasten21SelectRangeControllerC2EPNS_2If18ToolInlineViewableEP13KXMLGUIClient@ABI_4_0 4:4.6.1
 _ZN6Kasten21SelectRangeControllerD0Ev@ABI_4_0 4:4.6.1
 _ZN6Kasten21SelectRangeControllerD1Ev@ABI_4_0 4:4.6.1
 _ZN6Kasten21SelectRangeControllerD2Ev@ABI_4_0 4:4.6.1
 _ZN6Kasten21StructuresToolFactory6createEv@ABI_4_0 4:4.6.1
 _ZN6Kasten21StructuresToolFactoryC1Ev@ABI_4_0 4:4.6.1
 _ZN6Kasten21StructuresToolFactoryC2Ev@ABI_4_0 4:4.6.1
 _ZN6Kasten21StructuresToolFactoryD0Ev@ABI_4_0 4:4.6.1
 _ZN6Kasten21StructuresToolFactoryD1Ev@ABI_4_0 4:4.6.1
 _ZN6Kasten21StructuresToolFactoryD2Ev@ABI_4_0 4:4.6.1
 _ZN6Kasten22StringsExtractToolViewC1EPNS_18StringsExtractToolE@ABI_4_0 4:4.6.1
 _ZN6Kasten22StringsExtractToolViewC2EPNS_18StringsExtractToolE@ABI_4_0 4:4.6.1
 _ZN6Kasten22StringsExtractToolViewD0Ev@ABI_4_0 4:4.6.1
 _ZN6Kasten22StringsExtractToolViewD1Ev@ABI_4_0 4:4.6.1
 _ZN6Kasten22StringsExtractToolViewD2Ev@ABI_4_0 4:4.6.1
 _ZN6Kasten23ChecksumToolViewFactory6createEPNS_12AbstractToolE@ABI_4_0 4:4.6.1
 _ZN6Kasten23ChecksumToolViewFactoryC1Ev@ABI_4_0 4:4.6.1
 _ZN6Kasten23ChecksumToolViewFactoryC2Ev@ABI_4_0 4:4.6.1
 _ZN6Kasten23ChecksumToolViewFactoryD0Ev@ABI_4_0 4:4.6.1
 _ZN6Kasten23ChecksumToolViewFactoryD1Ev@ABI_4_0 4:4.6.1
 _ZN6Kasten23ChecksumToolViewFactoryD2Ev@ABI_4_0 4:4.6.1
 _ZN6Kasten23OverwriteModeController11qt_metacallEN11QMetaObject4CallEiPPv@ABI_4_0 4:4.6.1
 _ZN6Kasten23OverwriteModeController11qt_metacastEPKc@ABI_4_0 4:4.6.1
 _ZN6Kasten23OverwriteModeController12setOverWriteEb@ABI_4_0 4:4.6.1
 _ZN6Kasten23OverwriteModeController14setTargetModelEPNS_13AbstractModelE@ABI_4_0 4:4.6.1
 _ZN6Kasten23OverwriteModeController16staticMetaObjectE@ABI_4_0 4:4.6.1
 _ZN6Kasten23OverwriteModeControllerC1EP13KXMLGUIClient@ABI_4_0 4:4.6.1
 _ZN6Kasten23OverwriteModeControllerC2EP13KXMLGUIClient@ABI_4_0 4:4.6.1
 _ZN6Kasten24BookmarksToolViewFactory6createEPNS_12AbstractToolE@ABI_4_0 4:4.6.1
 _ZN6Kasten24BookmarksToolViewFactoryC1Ev@ABI_4_0 4:4.6.1
 _ZN6Kasten24BookmarksToolViewFactoryC2Ev@ABI_4_0 4:4.6.1
 _ZN6Kasten24BookmarksToolViewFactoryD0Ev@ABI_4_0 4:4.6.1
 _ZN6Kasten24BookmarksToolViewFactoryD1Ev@ABI_4_0 4:4.6.1
 _ZN6Kasten24BookmarksToolViewFactoryD2Ev@ABI_4_0 4:4.6.1
 _ZN6Kasten24ByteTableToolViewFactory6createEPNS_12AbstractToolE@ABI_4_0 4:4.6.1
 _ZN6Kasten24ByteTableToolViewFactoryC1Ev@ABI_4_0 4:4.6.1
 _ZN6Kasten24ByteTableToolViewFactoryC2Ev@ABI_4_0 4:4.6.1
 _ZN6Kasten24ByteTableToolViewFactoryD0Ev@ABI_4_0 4:4.6.1
 _ZN6Kasten24ByteTableToolViewFactoryD1Ev@ABI_4_0 4:4.6.1
 _ZN6Kasten24ByteTableToolViewFactoryD2Ev@ABI_4_0 4:4.6.1
 _ZN6Kasten25PodDecoderToolViewFactory6createEPNS_12AbstractToolE@ABI_4_0 4:4.6.1
 _ZN6Kasten25PodDecoderToolViewFactoryC1Ev@ABI_4_0 4:4.6.1
 _ZN6Kasten25PodDecoderToolViewFactoryC2Ev@ABI_4_0 4:4.6.1
 _ZN6Kasten25PodDecoderToolViewFactoryD0Ev@ABI_4_0 4:4.6.1
 _ZN6Kasten25PodDecoderToolViewFactoryD1Ev@ABI_4_0 4:4.6.1
 _ZN6Kasten25PodDecoderToolViewFactoryD2Ev@ABI_4_0 4:4.6.1
 _ZN6Kasten25StringsExtractToolFactory6createEv@ABI_4_0 4:4.6.1
 _ZN6Kasten25StringsExtractToolFactoryC1Ev@ABI_4_0 4:4.6.1
 _ZN6Kasten25StringsExtractToolFactoryC2Ev@ABI_4_0 4:4.6.1
 _ZN6Kasten25StringsExtractToolFactoryD0Ev@ABI_4_0 4:4.6.1
 _ZN6Kasten25StringsExtractToolFactoryD1Ev@ABI_4_0 4:4.6.1
 _ZN6Kasten25StringsExtractToolFactoryD2Ev@ABI_4_0 4:4.6.1
 _ZN6Kasten25StructuresToolViewFactory6createEPNS_12AbstractToolE@ABI_4_0 4:4.6.1
 _ZN6Kasten25StructuresToolViewFactoryC1Ev@ABI_4_0 4:4.6.1
 _ZN6Kasten25StructuresToolViewFactoryC2Ev@ABI_4_0 4:4.6.1
 _ZN6Kasten25StructuresToolViewFactoryD0Ev@ABI_4_0 4:4.6.1
 _ZN6Kasten25StructuresToolViewFactoryD1Ev@ABI_4_0 4:4.6.1
 _ZN6Kasten25StructuresToolViewFactoryD2Ev@ABI_4_0 4:4.6.1
 _ZN6Kasten29StringsExtractToolViewFactory6createEPNS_12AbstractToolE@ABI_4_0 4:4.6.1
 _ZN6Kasten29StringsExtractToolViewFactoryC1Ev@ABI_4_0 4:4.6.1
 _ZN6Kasten29StringsExtractToolViewFactoryC2Ev@ABI_4_0 4:4.6.1
 _ZN6Kasten29StringsExtractToolViewFactoryD0Ev@ABI_4_0 4:4.6.1
 _ZN6Kasten29StringsExtractToolViewFactoryD1Ev@ABI_4_0 4:4.6.1
 _ZN6Kasten29StringsExtractToolViewFactoryD2Ev@ABI_4_0 4:4.6.1
 _ZN6Kasten8InfoTool11qt_metacallEN11QMetaObject4CallEiPPv@ABI_4_0 4:4.6.1
 _ZN6Kasten8InfoTool11qt_metacastEPKc@ABI_4_0 4:4.6.1
 _ZN6Kasten8InfoTool14setTargetModelEPNS_13AbstractModelE@ABI_4_0 4:4.6.1
 _ZN6Kasten8InfoTool14statisticDirtyEb@ABI_4_0 4:4.6.1
 _ZN6Kasten8InfoTool15onSourceChangedEv@ABI_4_0 4:4.6.1
 _ZN6Kasten8InfoTool15updateStatisticEv@ABI_4_0 4:4.6.1
 _ZN6Kasten8InfoTool16staticMetaObjectE@ABI_4_0 4:4.6.1
 _ZN6Kasten8InfoTool17onSourceDestroyedEv@ABI_4_0 4:4.6.1
 _ZN6Kasten8InfoTool18isApplyableChangedEb@ABI_4_0 4:4.6.1
 _ZN6Kasten8InfoTool18onSelectionChangedEv@ABI_4_0 4:4.6.1
 _ZN6Kasten8InfoToolC1Ev@ABI_4_0 4:4.6.1
 _ZN6Kasten8InfoToolC2Ev@ABI_4_0 4:4.6.1
 _ZN6Kasten8InfoToolD0Ev@ABI_4_0 4:4.6.1
 _ZN6Kasten8InfoToolD1Ev@ABI_4_0 4:4.6.1
 _ZN6Kasten8InfoToolD2Ev@ABI_4_0 4:4.6.1
 _ZNK6Kasten10FilterTool10filterListEv@ABI_4_0 4:4.6.1
 _ZNK6Kasten10FilterTool10metaObjectEv@ABI_4_0 4:4.6.1
 _ZNK6Kasten10FilterTool12hasWriteableEv@ABI_4_0 4:4.6.1
 _ZNK6Kasten10FilterTool13charCodecNameEv@ABI_4_0 4:4.6.1
 _ZNK6Kasten10FilterTool5titleEv@ABI_4_0 4:4.6.1
 _ZNK6Kasten10FilterTool6filterEi@ABI_4_0 4:4.6.1
 _ZNK6Kasten10StructTool10childCountEv@ABI_4_0 4:4.6.1
 _ZNK6Kasten10StructTool10metaObjectEv@ABI_4_0 4:4.6.1
 _ZNK6Kasten10StructTool11columnCountEv@ABI_4_0 4:4.6.1
 _ZNK6Kasten10StructTool17isStructureLockedE11QModelIndex@ABI_4_0 4:4.6.1
 _ZNK6Kasten10StructTool20canStructureBeLockedE11QModelIndex@ABI_4_0 4:4.6.1
 _ZNK6Kasten10StructTool5flagsEiP15DataInformation@ABI_4_0 4:4.6.1
 _ZNK6Kasten10StructTool5titleEv@ABI_4_0 4:4.6.1
 _ZNK6Kasten10StructTool7childAtEi@ABI_4_0 4:4.6.1
 _ZNK6Kasten12ChecksumTool10metaObjectEv@ABI_4_0 4:4.6.1
 _ZNK6Kasten12ChecksumTool11isApplyableEv@ABI_4_0 4:4.6.1
 _ZNK6Kasten12ChecksumTool13algorithmListEv@ABI_4_0 4:4.6.1
 _ZNK6Kasten12ChecksumTool5titleEv@ABI_4_0 4:4.6.1
 _ZNK6Kasten12InfoToolView4toolEv@ABI_4_0 4:4.6.1
 _ZNK6Kasten12InfoToolView5titleEv@ABI_4_0 4:4.6.1
 _ZNK6Kasten12InfoToolView6widgetEv@ABI_4_0 4:4.6.1
#MISSING: 4:4.6.3# (optional=templinst)_ZNK6Kasten13AbstractModel13findBaseModelIPNS_13ByteArrayViewEEET_v@ABI_4_0 4:4.6.1
#MISSING: 4:4.6.3# (optional=templinst)_ZNK6Kasten13AbstractModel13findBaseModelIPNS_17ByteArrayDocumentEEET_v@ABI_4_0 4:4.6.1
 _ZNK6Kasten13BookmarksTool10bookmarkAtEj@ABI_4_0 4:4.6.1
 _ZNK6Kasten13BookmarksTool10metaObjectEv@ABI_4_0 4:4.6.1
 _ZNK6Kasten13BookmarksTool14bookmarksCountEv@ABI_4_0 4:4.6.1
 _ZNK6Kasten13BookmarksTool17canCreateBookmarkEv@ABI_4_0 4:4.6.1
 _ZNK6Kasten13BookmarksTool5titleEv@ABI_4_0 4:4.6.1
 _ZNK6Kasten13BookmarksTool7indexOfERKN6Okteta8BookmarkE@ABI_4_0 4:4.6.1
 _ZNK6Kasten13ByteTableTool10metaObjectEv@ABI_4_0 4:4.6.1
 _ZNK6Kasten13ByteTableTool12hasWriteableEv@ABI_4_0 4:4.6.1
 _ZNK6Kasten13ByteTableTool14byteTableModelEv@ABI_4_0 4:4.6.1
 _ZNK6Kasten13ByteTableTool5titleEv@ABI_4_0 4:4.6.1
 _ZNK6Kasten14FilterToolView4toolEv@ABI_4_0 4:4.6.1
 _ZNK6Kasten14FilterToolView5titleEv@ABI_4_0 4:4.6.1
 _ZNK6Kasten14FilterToolView6widgetEv@ABI_4_0 4:4.6.1
 _ZNK6Kasten14PODDecoderTool10isReadOnlyEv@ABI_4_0 4:4.6.1
 _ZNK6Kasten14PODDecoderTool10metaObjectEv@ABI_4_0 4:4.6.1
 _ZNK6Kasten14PODDecoderTool11isApplyableEv@ABI_4_0 4:4.6.1
 _ZNK6Kasten14PODDecoderTool5titleEv@ABI_4_0 4:4.6.1
 _ZNK6Kasten14PODDecoderTool5valueEi@ABI_4_0 4:4.6.1
 _ZNK6Kasten14PODDecoderTool8podCountEv@ABI_4_0 4:4.6.1
 _ZNK6Kasten14PODDecoderTool9nameOfPODEi@ABI_4_0 4:4.6.1
 _ZNK6Kasten14StructToolView4toolEv@ABI_4_0 4:4.6.1
 _ZNK6Kasten14StructToolView5titleEv@ABI_4_0 4:4.6.1
 _ZNK6Kasten14StructToolView6widgetEv@ABI_4_0 4:4.6.1
 _ZNK6Kasten15PrintController10metaObjectEv@ABI_4_0 4:4.6.1
 _ZNK6Kasten16ChecksumToolView4toolEv@ABI_4_0 4:4.6.1
 _ZNK6Kasten16ChecksumToolView5titleEv@ABI_4_0 4:4.6.1
 _ZNK6Kasten16ChecksumToolView6widgetEv@ABI_4_0 4:4.6.1
 _ZNK6Kasten16DocumentInfoTool10metaObjectEv@ABI_4_0 4:4.6.1
 _ZNK6Kasten16DocumentInfoTool12documentSizeEv@ABI_4_0 4:4.6.1
 _ZNK6Kasten16DocumentInfoTool13documentTitleEv@ABI_4_0 4:4.6.1
 _ZNK6Kasten16DocumentInfoTool5titleEv@ABI_4_0 4:4.6.1
 _ZNK6Kasten16DocumentInfoTool8locationEv@ABI_4_0 4:4.6.1
 _ZNK6Kasten16SearchController10metaObjectEv@ABI_4_0 4:4.6.1
 _ZNK6Kasten16SearchController13queryContinueENS_14KFindDirectionE@ABI_4_0 4:4.6.1
 _ZNK6Kasten17BookmarksToolView4toolEv@ABI_4_0 4:4.6.1
 _ZNK6Kasten17BookmarksToolView5titleEv@ABI_4_0 4:4.6.1
 _ZNK6Kasten17BookmarksToolView6widgetEv@ABI_4_0 4:4.6.1
 _ZNK6Kasten17ByteTableToolView4toolEv@ABI_4_0 4:4.6.1
 _ZNK6Kasten17ByteTableToolView5titleEv@ABI_4_0 4:4.6.1
 _ZNK6Kasten17ByteTableToolView6widgetEv@ABI_4_0 4:4.6.1
 _ZNK6Kasten17ReplaceController10metaObjectEv@ABI_4_0 4:4.6.1
 _ZNK6Kasten17ReplaceController13queryContinueENS_14KFindDirectionEi@ABI_4_0 4:4.6.1
 _ZNK6Kasten17ReplaceController19queryReplaceCurrentEv@ABI_4_0 4:4.6.1
 _ZNK6Kasten18PODDecoderToolView4toolEv@ABI_4_0 4:4.6.1
 _ZNK6Kasten18PODDecoderToolView5titleEv@ABI_4_0 4:4.6.1
 _ZNK6Kasten18PODDecoderToolView6widgetEv@ABI_4_0 4:4.6.1
 _ZNK6Kasten18StringsExtractTool10metaObjectEv@ABI_4_0 4:4.6.1
 _ZNK6Kasten18StringsExtractTool11isApplyableEv@ABI_4_0 4:4.6.1
 _ZNK6Kasten18StringsExtractTool18canHighlightStringEv@ABI_4_0 4:4.6.1
 _ZNK6Kasten18StringsExtractTool5titleEv@ABI_4_0 4:4.6.1
 _ZNK6Kasten18ViewModeController10metaObjectEv@ABI_4_0 4:4.6.1
 _ZNK6Kasten19BookmarksController10metaObjectEv@ABI_4_0 4:4.6.1
 _ZNK6Kasten19InfoToolViewFactory15defaultPositionEv@ABI_4_0 4:4.6.1
 _ZNK6Kasten19InfoToolViewFactory2idEv@ABI_4_0 4:4.6.1
 _ZNK6Kasten19InfoToolViewFactory5titleEv@ABI_4_0 4:4.6.1
 _ZNK6Kasten19InfoToolViewFactory8iconNameEv@ABI_4_0 4:4.6.1
 _ZNK6Kasten20DocumentInfoToolView4toolEv@ABI_4_0 4:4.6.1
 _ZNK6Kasten20DocumentInfoToolView5titleEv@ABI_4_0 4:4.6.1
 _ZNK6Kasten20DocumentInfoToolView6widgetEv@ABI_4_0 4:4.6.1
 _ZNK6Kasten20GotoOffsetController10metaObjectEv@ABI_4_0 4:4.6.1
 _ZNK6Kasten20ViewConfigController10metaObjectEv@ABI_4_0 4:4.6.1
 _ZNK6Kasten20ViewStatusController10metaObjectEv@ABI_4_0 4:4.6.1
 _ZNK6Kasten21FilterToolViewFactory15defaultPositionEv@ABI_4_0 4:4.6.1
 _ZNK6Kasten21FilterToolViewFactory2idEv@ABI_4_0 4:4.6.1
 _ZNK6Kasten21FilterToolViewFactory5titleEv@ABI_4_0 4:4.6.1
 _ZNK6Kasten21FilterToolViewFactory8iconNameEv@ABI_4_0 4:4.6.1
 _ZNK6Kasten21SelectRangeController10metaObjectEv@ABI_4_0 4:4.6.1
 _ZNK6Kasten22StringsExtractToolView4toolEv@ABI_4_0 4:4.6.1
 _ZNK6Kasten22StringsExtractToolView5titleEv@ABI_4_0 4:4.6.1
 _ZNK6Kasten22StringsExtractToolView6widgetEv@ABI_4_0 4:4.6.1
 _ZNK6Kasten23ChecksumToolViewFactory15defaultPositionEv@ABI_4_0 4:4.6.1
 _ZNK6Kasten23ChecksumToolViewFactory2idEv@ABI_4_0 4:4.6.1
 _ZNK6Kasten23ChecksumToolViewFactory5titleEv@ABI_4_0 4:4.6.1
 _ZNK6Kasten23ChecksumToolViewFactory8iconNameEv@ABI_4_0 4:4.6.1
 _ZNK6Kasten23OverwriteModeController10metaObjectEv@ABI_4_0 4:4.6.1
 _ZNK6Kasten24BookmarksToolViewFactory15defaultPositionEv@ABI_4_0 4:4.6.1
 _ZNK6Kasten24BookmarksToolViewFactory2idEv@ABI_4_0 4:4.6.1
 _ZNK6Kasten24BookmarksToolViewFactory5titleEv@ABI_4_0 4:4.6.1
 _ZNK6Kasten24BookmarksToolViewFactory8iconNameEv@ABI_4_0 4:4.6.1
 _ZNK6Kasten24ByteTableToolViewFactory15defaultPositionEv@ABI_4_0 4:4.6.1
 _ZNK6Kasten24ByteTableToolViewFactory2idEv@ABI_4_0 4:4.6.1
 _ZNK6Kasten24ByteTableToolViewFactory5titleEv@ABI_4_0 4:4.6.1
 _ZNK6Kasten24ByteTableToolViewFactory8iconNameEv@ABI_4_0 4:4.6.1
 _ZNK6Kasten25PodDecoderToolViewFactory15defaultPositionEv@ABI_4_0 4:4.6.1
 _ZNK6Kasten25PodDecoderToolViewFactory2idEv@ABI_4_0 4:4.6.1
 _ZNK6Kasten25PodDecoderToolViewFactory5titleEv@ABI_4_0 4:4.6.1
 _ZNK6Kasten25PodDecoderToolViewFactory8iconNameEv@ABI_4_0 4:4.6.1
 _ZNK6Kasten25StructuresToolViewFactory15defaultPositionEv@ABI_4_0 4:4.6.1
 _ZNK6Kasten25StructuresToolViewFactory2idEv@ABI_4_0 4:4.6.1
 _ZNK6Kasten25StructuresToolViewFactory5titleEv@ABI_4_0 4:4.6.1
 _ZNK6Kasten25StructuresToolViewFactory8iconNameEv@ABI_4_0 4:4.6.1
 _ZNK6Kasten29StringsExtractToolViewFactory15defaultPositionEv@ABI_4_0 4:4.6.1
 _ZNK6Kasten29StringsExtractToolViewFactory2idEv@ABI_4_0 4:4.6.1
 _ZNK6Kasten29StringsExtractToolViewFactory5titleEv@ABI_4_0 4:4.6.1
 _ZNK6Kasten29StringsExtractToolViewFactory8iconNameEv@ABI_4_0 4:4.6.1
 _ZNK6Kasten8InfoTool10metaObjectEv@ABI_4_0 4:4.6.1
 _ZNK6Kasten8InfoTool11isApplyableEv@ABI_4_0 4:4.6.1
 _ZNK6Kasten8InfoTool19isStatisticUptodateEv@ABI_4_0 4:4.6.1
 _ZNK6Kasten8InfoTool19statisticTableModelEv@ABI_4_0 4:4.6.1
 _ZNK6Kasten8InfoTool4sizeEv@ABI_4_0 4:4.6.1
 _ZNK6Kasten8InfoTool5titleEv@ABI_4_0 4:4.6.1
 _ZTIN6Kasten10FilterToolE@ABI_4_0 4:4.6.1
 _ZTIN6Kasten10StructToolE@ABI_4_0 4:4.6.1
 _ZTIN6Kasten12ChecksumToolE@ABI_4_0 4:4.6.1
 _ZTIN6Kasten12InfoToolViewE@ABI_4_0 4:4.6.1
 _ZTIN6Kasten13BookmarksToolE@ABI_4_0 4:4.6.1
 _ZTIN6Kasten13ByteTableToolE@ABI_4_0 4:4.6.1
 _ZTIN6Kasten14FilterToolViewE@ABI_4_0 4:4.6.1
 _ZTIN6Kasten14PODDecoderToolE@ABI_4_0 4:4.6.1
 _ZTIN6Kasten14StructToolViewE@ABI_4_0 4:4.6.1
 _ZTIN6Kasten15InfoToolFactoryE@ABI_4_0 4:4.6.1
 _ZTIN6Kasten15PrintControllerE@ABI_4_0 4:4.6.1
 _ZTIN6Kasten16ChecksumToolViewE@ABI_4_0 4:4.6.1
 _ZTIN6Kasten16DocumentInfoToolE@ABI_4_0 4:4.6.1
 _ZTIN6Kasten16SearchControllerE@ABI_4_0 4:4.6.1
 _ZTIN6Kasten17BookmarksToolViewE@ABI_4_0 4:4.6.1
 _ZTIN6Kasten17ByteTableToolViewE@ABI_4_0 4:4.6.1
 _ZTIN6Kasten17FilterToolFactoryE@ABI_4_0 4:4.6.1
 _ZTIN6Kasten17ReplaceControllerE@ABI_4_0 4:4.6.1
 _ZTIN6Kasten18PODDecoderToolViewE@ABI_4_0 4:4.6.1
 _ZTIN6Kasten18StringsExtractToolE@ABI_4_0 4:4.6.1
 _ZTIN6Kasten18ViewModeControllerE@ABI_4_0 4:4.6.1
 _ZTIN6Kasten19BookmarksControllerE@ABI_4_0 4:4.6.1
 _ZTIN6Kasten19ChecksumToolFactoryE@ABI_4_0 4:4.6.1
 _ZTIN6Kasten19InfoToolViewFactoryE@ABI_4_0 4:4.6.1
 _ZTIN6Kasten20BookmarksToolFactoryE@ABI_4_0 4:4.6.1
 _ZTIN6Kasten20ByteTableToolFactoryE@ABI_4_0 4:4.6.1
 _ZTIN6Kasten20DocumentInfoToolViewE@ABI_4_0 4:4.6.1
 _ZTIN6Kasten20GotoOffsetControllerE@ABI_4_0 4:4.6.1
 _ZTIN6Kasten20ViewConfigControllerE@ABI_4_0 4:4.6.1
 _ZTIN6Kasten20ViewStatusControllerE@ABI_4_0 4:4.6.1
 _ZTIN6Kasten21FilterToolViewFactoryE@ABI_4_0 4:4.6.1
 _ZTIN6Kasten21PodDecoderToolFactoryE@ABI_4_0 4:4.6.1
 _ZTIN6Kasten21SelectRangeControllerE@ABI_4_0 4:4.6.1
 _ZTIN6Kasten21StructuresToolFactoryE@ABI_4_0 4:4.6.1
 _ZTIN6Kasten22StringsExtractToolViewE@ABI_4_0 4:4.6.1
 _ZTIN6Kasten23ChecksumToolViewFactoryE@ABI_4_0 4:4.6.1
 _ZTIN6Kasten23OverwriteModeControllerE@ABI_4_0 4:4.6.1
 _ZTIN6Kasten24BookmarksToolViewFactoryE@ABI_4_0 4:4.6.1
 _ZTIN6Kasten24ByteTableToolViewFactoryE@ABI_4_0 4:4.6.1
 _ZTIN6Kasten25PodDecoderToolViewFactoryE@ABI_4_0 4:4.6.1
 _ZTIN6Kasten25StringsExtractToolFactoryE@ABI_4_0 4:4.6.1
 _ZTIN6Kasten25StructuresToolViewFactoryE@ABI_4_0 4:4.6.1
 _ZTIN6Kasten29StringsExtractToolViewFactoryE@ABI_4_0 4:4.6.1
 _ZTIN6Kasten8InfoToolE@ABI_4_0 4:4.6.1
 _ZTSN6Kasten10FilterToolE@ABI_4_0 4:4.6.1
 _ZTSN6Kasten10StructToolE@ABI_4_0 4:4.6.1
 _ZTSN6Kasten12ChecksumToolE@ABI_4_0 4:4.6.1
 _ZTSN6Kasten12InfoToolViewE@ABI_4_0 4:4.6.1
 _ZTSN6Kasten13BookmarksToolE@ABI_4_0 4:4.6.1
 _ZTSN6Kasten13ByteTableToolE@ABI_4_0 4:4.6.1
 _ZTSN6Kasten14FilterToolViewE@ABI_4_0 4:4.6.1
 _ZTSN6Kasten14PODDecoderToolE@ABI_4_0 4:4.6.1
 _ZTSN6Kasten14StructToolViewE@ABI_4_0 4:4.6.1
 _ZTSN6Kasten15InfoToolFactoryE@ABI_4_0 4:4.6.1
 _ZTSN6Kasten15PrintControllerE@ABI_4_0 4:4.6.1
 _ZTSN6Kasten16ChecksumToolViewE@ABI_4_0 4:4.6.1
 _ZTSN6Kasten16DocumentInfoToolE@ABI_4_0 4:4.6.1
 _ZTSN6Kasten16SearchControllerE@ABI_4_0 4:4.6.1
 _ZTSN6Kasten17BookmarksToolViewE@ABI_4_0 4:4.6.1
 _ZTSN6Kasten17ByteTableToolViewE@ABI_4_0 4:4.6.1
 _ZTSN6Kasten17FilterToolFactoryE@ABI_4_0 4:4.6.1
 _ZTSN6Kasten17ReplaceControllerE@ABI_4_0 4:4.6.1
 _ZTSN6Kasten18PODDecoderToolViewE@ABI_4_0 4:4.6.1
 _ZTSN6Kasten18StringsExtractToolE@ABI_4_0 4:4.6.1
 _ZTSN6Kasten18ViewModeControllerE@ABI_4_0 4:4.6.1
 _ZTSN6Kasten19BookmarksControllerE@ABI_4_0 4:4.6.1
 _ZTSN6Kasten19ChecksumToolFactoryE@ABI_4_0 4:4.6.1
 _ZTSN6Kasten19InfoToolViewFactoryE@ABI_4_0 4:4.6.1
 _ZTSN6Kasten20BookmarksToolFactoryE@ABI_4_0 4:4.6.1
 _ZTSN6Kasten20ByteTableToolFactoryE@ABI_4_0 4:4.6.1
 _ZTSN6Kasten20DocumentInfoToolViewE@ABI_4_0 4:4.6.1
 _ZTSN6Kasten20GotoOffsetControllerE@ABI_4_0 4:4.6.1
 _ZTSN6Kasten20ViewConfigControllerE@ABI_4_0 4:4.6.1
 _ZTSN6Kasten20ViewStatusControllerE@ABI_4_0 4:4.6.1
 _ZTSN6Kasten21FilterToolViewFactoryE@ABI_4_0 4:4.6.1
 _ZTSN6Kasten21PodDecoderToolFactoryE@ABI_4_0 4:4.6.1
 _ZTSN6Kasten21SelectRangeControllerE@ABI_4_0 4:4.6.1
 _ZTSN6Kasten21StructuresToolFactoryE@ABI_4_0 4:4.6.1
 _ZTSN6Kasten22StringsExtractToolViewE@ABI_4_0 4:4.6.1
 _ZTSN6Kasten23ChecksumToolViewFactoryE@ABI_4_0 4:4.6.1
 _ZTSN6Kasten23OverwriteModeControllerE@ABI_4_0 4:4.6.1
 _ZTSN6Kasten24BookmarksToolViewFactoryE@ABI_4_0 4:4.6.1
 _ZTSN6Kasten24ByteTableToolViewFactoryE@ABI_4_0 4:4.6.1
 _ZTSN6Kasten25PodDecoderToolViewFactoryE@ABI_4_0 4:4.6.1
 _ZTSN6Kasten25StringsExtractToolFactoryE@ABI_4_0 4:4.6.1
 _ZTSN6Kasten25StructuresToolViewFactoryE@ABI_4_0 4:4.6.1
 _ZTSN6Kasten29StringsExtractToolViewFactoryE@ABI_4_0 4:4.6.1
 _ZTSN6Kasten8InfoToolE@ABI_4_0 4:4.6.1
 _ZTVN6Kasten10FilterToolE@ABI_4_0 4:4.6.1
 _ZTVN6Kasten10StructToolE@ABI_4_0 4:4.6.1
 _ZTVN6Kasten12ChecksumToolE@ABI_4_0 4:4.6.1
 _ZTVN6Kasten12InfoToolViewE@ABI_4_0 4:4.6.1
 _ZTVN6Kasten13BookmarksToolE@ABI_4_0 4:4.6.1
 _ZTVN6Kasten13ByteTableToolE@ABI_4_0 4:4.6.1
 _ZTVN6Kasten14FilterToolViewE@ABI_4_0 4:4.6.1
 _ZTVN6Kasten14PODDecoderToolE@ABI_4_0 4:4.6.1
 _ZTVN6Kasten14StructToolViewE@ABI_4_0 4:4.6.1
 _ZTVN6Kasten15InfoToolFactoryE@ABI_4_0 4:4.6.1
 _ZTVN6Kasten15PrintControllerE@ABI_4_0 4:4.6.1
 _ZTVN6Kasten16ChecksumToolViewE@ABI_4_0 4:4.6.1
 _ZTVN6Kasten16DocumentInfoToolE@ABI_4_0 4:4.6.1
 _ZTVN6Kasten16SearchControllerE@ABI_4_0 4:4.6.1
 _ZTVN6Kasten17BookmarksToolViewE@ABI_4_0 4:4.6.1
 _ZTVN6Kasten17ByteTableToolViewE@ABI_4_0 4:4.6.1
 _ZTVN6Kasten17FilterToolFactoryE@ABI_4_0 4:4.6.1
 _ZTVN6Kasten17ReplaceControllerE@ABI_4_0 4:4.6.1
 _ZTVN6Kasten18PODDecoderToolViewE@ABI_4_0 4:4.6.1
 _ZTVN6Kasten18StringsExtractToolE@ABI_4_0 4:4.6.1
 _ZTVN6Kasten18ViewModeControllerE@ABI_4_0 4:4.6.1
 _ZTVN6Kasten19BookmarksControllerE@ABI_4_0 4:4.6.1
 _ZTVN6Kasten19ChecksumToolFactoryE@ABI_4_0 4:4.6.1
 _ZTVN6Kasten19InfoToolViewFactoryE@ABI_4_0 4:4.6.1
 _ZTVN6Kasten20BookmarksToolFactoryE@ABI_4_0 4:4.6.1
 _ZTVN6Kasten20ByteTableToolFactoryE@ABI_4_0 4:4.6.1
 _ZTVN6Kasten20DocumentInfoToolViewE@ABI_4_0 4:4.6.1
 _ZTVN6Kasten20GotoOffsetControllerE@ABI_4_0 4:4.6.1
 _ZTVN6Kasten20ViewConfigControllerE@ABI_4_0 4:4.6.1
 _ZTVN6Kasten20ViewStatusControllerE@ABI_4_0 4:4.6.1
 _ZTVN6Kasten21FilterToolViewFactoryE@ABI_4_0 4:4.6.1
 _ZTVN6Kasten21PodDecoderToolFactoryE@ABI_4_0 4:4.6.1
 _ZTVN6Kasten21SelectRangeControllerE@ABI_4_0 4:4.6.1
 _ZTVN6Kasten21StructuresToolFactoryE@ABI_4_0 4:4.6.1
 _ZTVN6Kasten22StringsExtractToolViewE@ABI_4_0 4:4.6.1
 _ZTVN6Kasten23ChecksumToolViewFactoryE@ABI_4_0 4:4.6.1
 _ZTVN6Kasten23OverwriteModeControllerE@ABI_4_0 4:4.6.1
 _ZTVN6Kasten24BookmarksToolViewFactoryE@ABI_4_0 4:4.6.1
 _ZTVN6Kasten24ByteTableToolViewFactoryE@ABI_4_0 4:4.6.1
 _ZTVN6Kasten25PodDecoderToolViewFactoryE@ABI_4_0 4:4.6.1
 _ZTVN6Kasten25StringsExtractToolFactoryE@ABI_4_0 4:4.6.1
 _ZTVN6Kasten25StructuresToolViewFactoryE@ABI_4_0 4:4.6.1
 _ZTVN6Kasten29StringsExtractToolViewFactoryE@ABI_4_0 4:4.6.1
 _ZTVN6Kasten8InfoToolE@ABI_4_0 4:4.6.1
 (c++)"non-virtual thunk to Kasten::ReplaceController::queryContinue(Kasten::KFindDirection, int) const@ABI_4_0" 4:4.6.1
 (c++)"non-virtual thunk to Kasten::ReplaceController::queryReplaceCurrent() const@ABI_4_0" 4:4.6.1
 (c++)"non-virtual thunk to Kasten::ReplaceController::~ReplaceController()@ABI_4_0" 4:4.6.1
 (c++)"non-virtual thunk to Kasten::SearchController::queryContinue(Kasten::KFindDirection) const@ABI_4_0" 4:4.6.1
 (c++)"non-virtual thunk to Kasten::SearchController::~SearchController()@ABI_4_0" 4:4.6.1
